
images/root_task:     file format elf64-x86-64


Disassembly of section .init:

0000000000401000 <_init>:
  401000:	55                   	push   %rbp
  401001:	48 89 e5             	mov    %rsp,%rbp
  401004:	c9                   	leaveq 
  401005:	c3                   	retq   

Disassembly of section .text:

0000000000401010 <exit>:
  401010:	f3 0f 1e fa          	endbr64 
  401014:	50                   	push   %rax
  401015:	58                   	pop    %rax
  401016:	31 c0                	xor    %eax,%eax
  401018:	48 83 ec 18          	sub    $0x18,%rsp
  40101c:	89 7c 24 0c          	mov    %edi,0xc(%rsp)
  401020:	e8 11 a3 00 00       	callq  40b336 <__funcs_on_exit>
  401025:	e8 11 a3 00 00       	callq  40b33b <__libc_exit_fini>
  40102a:	31 c0                	xor    %eax,%eax
  40102c:	e8 87 02 01 00       	callq  4112b8 <__stdio_exit>
  401031:	8b 7c 24 0c          	mov    0xc(%rsp),%edi
  401035:	e8 c9 d7 00 00       	callq  40e803 <_Exit>

000000000040103a <_start>:
  40103a:	48 89 e5             	mov    %rsp,%rbp
  40103d:	48 89 e7             	mov    %rsp,%rdi
  401040:	48 83 ec 08          	sub    $0x8,%rsp
  401044:	55                   	push   %rbp
  401045:	e8 e7 00 00 00       	callq  401131 <__sel4_start_c>
  40104a:	eb fe                	jmp    40104a <_start+0x10>
  40104c:	0f 1f 40 00          	nopl   0x0(%rax)

0000000000401050 <deregister_tm_clones>:
  401050:	b8 28 88 41 00       	mov    $0x418828,%eax
  401055:	48 3d 28 88 41 00    	cmp    $0x418828,%rax
  40105b:	74 13                	je     401070 <deregister_tm_clones+0x20>
  40105d:	b8 00 00 00 00       	mov    $0x0,%eax
  401062:	48 85 c0             	test   %rax,%rax
  401065:	74 09                	je     401070 <deregister_tm_clones+0x20>
  401067:	bf 28 88 41 00       	mov    $0x418828,%edi
  40106c:	ff e0                	jmpq   *%rax
  40106e:	66 90                	xchg   %ax,%ax
  401070:	c3                   	retq   
  401071:	66 66 2e 0f 1f 84 00 	data16 nopw %cs:0x0(%rax,%rax,1)
  401078:	00 00 00 00 
  40107c:	0f 1f 40 00          	nopl   0x0(%rax)

0000000000401080 <register_tm_clones>:
  401080:	be 28 88 41 00       	mov    $0x418828,%esi
  401085:	48 81 ee 28 88 41 00 	sub    $0x418828,%rsi
  40108c:	48 89 f0             	mov    %rsi,%rax
  40108f:	48 c1 ee 3f          	shr    $0x3f,%rsi
  401093:	48 c1 f8 03          	sar    $0x3,%rax
  401097:	48 01 c6             	add    %rax,%rsi
  40109a:	48 d1 fe             	sar    %rsi
  40109d:	74 11                	je     4010b0 <register_tm_clones+0x30>
  40109f:	b8 00 00 00 00       	mov    $0x0,%eax
  4010a4:	48 85 c0             	test   %rax,%rax
  4010a7:	74 07                	je     4010b0 <register_tm_clones+0x30>
  4010a9:	bf 28 88 41 00       	mov    $0x418828,%edi
  4010ae:	ff e0                	jmpq   *%rax
  4010b0:	c3                   	retq   
  4010b1:	66 66 2e 0f 1f 84 00 	data16 nopw %cs:0x0(%rax,%rax,1)
  4010b8:	00 00 00 00 
  4010bc:	0f 1f 40 00          	nopl   0x0(%rax)

00000000004010c0 <__do_global_dtors_aux>:
  4010c0:	f3 0f 1e fa          	endbr64 
  4010c4:	80 3d 35 7f 01 00 00 	cmpb   $0x0,0x17f35(%rip)        # 419000 <completed.8061>
  4010cb:	75 13                	jne    4010e0 <__do_global_dtors_aux+0x20>
  4010cd:	55                   	push   %rbp
  4010ce:	48 89 e5             	mov    %rsp,%rbp
  4010d1:	e8 7a ff ff ff       	callq  401050 <deregister_tm_clones>
  4010d6:	c6 05 23 7f 01 00 01 	movb   $0x1,0x17f23(%rip)        # 419000 <completed.8061>
  4010dd:	5d                   	pop    %rbp
  4010de:	c3                   	retq   
  4010df:	90                   	nop
  4010e0:	c3                   	retq   
  4010e1:	66 66 2e 0f 1f 84 00 	data16 nopw %cs:0x0(%rax,%rax,1)
  4010e8:	00 00 00 00 
  4010ec:	0f 1f 40 00          	nopl   0x0(%rax)

00000000004010f0 <frame_dummy>:
  4010f0:	f3 0f 1e fa          	endbr64 
  4010f4:	eb 8a                	jmp    401080 <register_tm_clones>

00000000004010f6 <main>:
  4010f6:	f3 0f 1e fa          	endbr64 
  4010fa:	55                   	push   %rbp
  4010fb:	48 89 e5             	mov    %rsp,%rbp
  4010fe:	48 83 ec 10          	sub    $0x10,%rsp
  401102:	89 7d fc             	mov    %edi,-0x4(%rbp)
  401105:	48 89 75 f0          	mov    %rsi,-0x10(%rbp)
  401109:	bf 00 20 41 00       	mov    $0x412000,%edi
  40110e:	e8 92 b3 00 00       	callq  40c4a5 <puts>
  401113:	b8 00 00 00 00       	mov    $0x0,%eax
  401118:	c9                   	leaveq 
  401119:	c3                   	retq   

000000000040111a <_sel4_start>:
  40111a:	48 8d 24 25 10 d0 41 	lea    0x41d010,%rsp
  401121:	00 
  401122:	48 89 e5             	mov    %rsp,%rbp
  401125:	48 83 ec 08          	sub    $0x8,%rsp
  401129:	55                   	push   %rbp
  40112a:	e8 0e 01 00 00       	callq  40123d <__sel4_start_root>
  40112f:	eb fe                	jmp    40112f <_sel4_start+0x15>

0000000000401131 <__sel4_start_c>:
  401131:	f3 0f 1e fa          	endbr64 
  401135:	55                   	push   %rbp
  401136:	48 89 e5             	mov    %rsp,%rbp
  401139:	48 83 ec 40          	sub    $0x40,%rsp
  40113d:	48 89 7d c8          	mov    %rdi,-0x38(%rbp)
  401141:	48 8b 45 c8          	mov    -0x38(%rbp),%rax
  401145:	48 8b 00             	mov    (%rax),%rax
  401148:	48 89 45 f0          	mov    %rax,-0x10(%rbp)
  40114c:	48 8b 45 c8          	mov    -0x38(%rbp),%rax
  401150:	48 83 c0 08          	add    $0x8,%rax
  401154:	48 89 45 e8          	mov    %rax,-0x18(%rbp)
  401158:	48 8b 45 f0          	mov    -0x10(%rbp),%rax
  40115c:	48 83 c0 01          	add    $0x1,%rax
  401160:	48 8d 14 c5 00 00 00 	lea    0x0(,%rax,8),%rdx
  401167:	00 
  401168:	48 8b 45 e8          	mov    -0x18(%rbp),%rax
  40116c:	48 01 d0             	add    %rdx,%rax
  40116f:	48 89 45 e0          	mov    %rax,-0x20(%rbp)
  401173:	c7 45 fc 00 00 00 00 	movl   $0x0,-0x4(%rbp)
  40117a:	eb 04                	jmp    401180 <__sel4_start_c+0x4f>
  40117c:	83 45 fc 01          	addl   $0x1,-0x4(%rbp)
  401180:	8b 45 fc             	mov    -0x4(%rbp),%eax
  401183:	48 98                	cltq   
  401185:	48 8d 14 c5 00 00 00 	lea    0x0(,%rax,8),%rdx
  40118c:	00 
  40118d:	48 8b 45 e0          	mov    -0x20(%rbp),%rax
  401191:	48 01 d0             	add    %rdx,%rax
  401194:	48 8b 00             	mov    (%rax),%rax
  401197:	48 85 c0             	test   %rax,%rax
  40119a:	75 e0                	jne    40117c <__sel4_start_c+0x4b>
  40119c:	8b 45 fc             	mov    -0x4(%rbp),%eax
  40119f:	48 98                	cltq   
  4011a1:	48 83 c0 01          	add    $0x1,%rax
  4011a5:	48 8d 14 c5 00 00 00 	lea    0x0(,%rax,8),%rdx
  4011ac:	00 
  4011ad:	48 8b 45 e0          	mov    -0x20(%rbp),%rax
  4011b1:	48 01 d0             	add    %rdx,%rax
  4011b4:	48 89 45 d8          	mov    %rax,-0x28(%rbp)
  4011b8:	48 8b 75 d8          	mov    -0x28(%rbp),%rsi
  4011bc:	48 8b 4d e0          	mov    -0x20(%rbp),%rcx
  4011c0:	48 8b 55 e8          	mov    -0x18(%rbp),%rdx
  4011c4:	48 8b 45 f0          	mov    -0x10(%rbp),%rax
  4011c8:	49 89 f0             	mov    %rsi,%r8
  4011cb:	48 89 c6             	mov    %rax,%rsi
  4011ce:	bf f6 10 40 00       	mov    $0x4010f6,%edi
  4011d3:	e8 03 00 00 00       	callq  4011db <__sel4runtime_start_main>
  4011d8:	90                   	nop
  4011d9:	c9                   	leaveq 
  4011da:	c3                   	retq   

00000000004011db <__sel4runtime_start_main>:
  4011db:	f3 0f 1e fa          	endbr64 
  4011df:	55                   	push   %rbp
  4011e0:	48 89 e5             	mov    %rsp,%rbp
  4011e3:	48 83 ec 30          	sub    $0x30,%rsp
  4011e7:	48 89 7d f8          	mov    %rdi,-0x8(%rbp)
  4011eb:	48 89 75 f0          	mov    %rsi,-0x10(%rbp)
  4011ef:	48 89 55 e8          	mov    %rdx,-0x18(%rbp)
  4011f3:	48 89 4d e0          	mov    %rcx,-0x20(%rbp)
  4011f7:	4c 89 45 d8          	mov    %r8,-0x28(%rbp)
  4011fb:	48 8b 45 f0          	mov    -0x10(%rbp),%rax
  4011ff:	89 c7                	mov    %eax,%edi
  401201:	48 8b 4d d8          	mov    -0x28(%rbp),%rcx
  401205:	48 8b 55 e0          	mov    -0x20(%rbp),%rdx
  401209:	48 8b 45 e8          	mov    -0x18(%rbp),%rax
  40120d:	48 89 c6             	mov    %rax,%rsi
  401210:	e8 e2 04 00 00       	callq  4016f7 <__sel4runtime_load_env>
  401215:	48 8b 55 e0          	mov    -0x20(%rbp),%rdx
  401219:	48 8b 4d e8          	mov    -0x18(%rbp),%rcx
  40121d:	48 8b 45 f0          	mov    -0x10(%rbp),%rax
  401221:	4c 8b 45 f8          	mov    -0x8(%rbp),%r8
  401225:	48 89 ce             	mov    %rcx,%rsi
  401228:	48 89 c7             	mov    %rax,%rdi
  40122b:	b8 00 00 00 00       	mov    $0x0,%eax
  401230:	41 ff d0             	callq  *%r8
  401233:	89 c7                	mov    %eax,%edi
  401235:	e8 d0 03 00 00       	callq  40160a <sel4runtime_exit>
  40123a:	90                   	nop
  40123b:	c9                   	leaveq 
  40123c:	c3                   	retq   

000000000040123d <__sel4_start_root>:
  40123d:	f3 0f 1e fa          	endbr64 
  401241:	55                   	push   %rbp
  401242:	48 89 e5             	mov    %rsp,%rbp
  401245:	48 81 ec 00 01 00 00 	sub    $0x100,%rsp
  40124c:	48 89 bd 08 ff ff ff 	mov    %rdi,-0xf8(%rbp)
  401253:	48 c7 45 f8 6c 5c 41 	movq   $0x415c6c,-0x8(%rbp)
  40125a:	00 
  40125b:	48 c7 45 f0 6c 5c 41 	movq   $0x415c6c,-0x10(%rbp)
  401262:	00 
  401263:	48 c7 45 e8 70 5c 41 	movq   $0x415c70,-0x18(%rbp)
  40126a:	00 
  40126b:	48 c7 45 e0 7c 5c 41 	movq   $0x415c7c,-0x20(%rbp)
  401272:	00 
  401273:	48 83 7d f8 00       	cmpq   $0x0,-0x8(%rbp)
  401278:	75 10                	jne    40128a <__sel4_start_root+0x4d>
  40127a:	48 8b 45 e8          	mov    -0x18(%rbp),%rax
  40127e:	48 89 45 f8          	mov    %rax,-0x8(%rbp)
  401282:	48 8b 45 e8          	mov    -0x18(%rbp),%rax
  401286:	48 89 45 f0          	mov    %rax,-0x10(%rbp)
  40128a:	48 c7 45 a0 00 00 00 	movq   $0x0,-0x60(%rbp)
  401291:	00 
  401292:	48 c7 45 a8 00 00 00 	movq   $0x0,-0x58(%rbp)
  401299:	00 
  40129a:	48 c7 45 b0 00 00 00 	movq   $0x0,-0x50(%rbp)
  4012a1:	00 
  4012a2:	48 c7 45 b8 00 00 00 	movq   $0x0,-0x48(%rbp)
  4012a9:	00 
  4012aa:	48 c7 45 c0 00 00 00 	movq   $0x0,-0x40(%rbp)
  4012b1:	00 
  4012b2:	48 c7 45 c8 00 00 00 	movq   $0x0,-0x38(%rbp)
  4012b9:	00 
  4012ba:	48 c7 45 d0 00 00 00 	movq   $0x0,-0x30(%rbp)
  4012c1:	00 
  4012c2:	c7 45 a0 07 00 00 00 	movl   $0x7,-0x60(%rbp)
  4012c9:	48 8b 45 f8          	mov    -0x8(%rbp),%rax
  4012cd:	48 89 45 b0          	mov    %rax,-0x50(%rbp)
  4012d1:	48 8b 45 f0          	mov    -0x10(%rbp),%rax
  4012d5:	48 2b 45 f8          	sub    -0x8(%rbp),%rax
  4012d9:	48 89 45 c0          	mov    %rax,-0x40(%rbp)
  4012dd:	48 8b 45 e0          	mov    -0x20(%rbp),%rax
  4012e1:	48 2b 45 f8          	sub    -0x8(%rbp),%rax
  4012e5:	48 89 45 c8          	mov    %rax,-0x38(%rbp)
  4012e9:	48 c7 45 d0 08 00 00 	movq   $0x8,-0x30(%rbp)
  4012f0:	00 
  4012f1:	48 c7 85 10 ff ff ff 	movq   $0x41201c,-0xf0(%rbp)
  4012f8:	1c 20 41 00 
  4012fc:	48 c7 85 18 ff ff ff 	movq   $0x0,-0xe8(%rbp)
  401303:	00 00 00 00 
  401307:	48 c7 85 20 ff ff ff 	movq   $0x412027,-0xe0(%rbp)
  40130e:	27 20 41 00 
  401312:	48 c7 85 28 ff ff ff 	movq   $0x0,-0xd8(%rbp)
  401319:	00 00 00 00 
  40131d:	c7 85 30 ff ff ff 04 	movl   $0x4,-0xd0(%rbp)
  401324:	00 00 00 
  401327:	48 c7 85 38 ff ff ff 	movq   $0x20,-0xc8(%rbp)
  40132e:	20 00 00 00 
  401332:	c7 85 40 ff ff ff 05 	movl   $0x5,-0xc0(%rbp)
  401339:	00 00 00 
  40133c:	48 c7 85 48 ff ff ff 	movq   $0x1,-0xb8(%rbp)
  401343:	01 00 00 00 
  401347:	c7 85 50 ff ff ff 03 	movl   $0x3,-0xb0(%rbp)
  40134e:	00 00 00 
  401351:	48 8d 45 a0          	lea    -0x60(%rbp),%rax
  401355:	48 89 85 58 ff ff ff 	mov    %rax,-0xa8(%rbp)
  40135c:	c7 85 60 ff ff ff 20 	movl   $0x20,-0xa0(%rbp)
  401363:	00 00 00 
  401366:	48 c7 85 68 ff ff ff 	movq   $0x404e38,-0x98(%rbp)
  40136d:	38 4e 40 00 
  401371:	c7 85 70 ff ff ff 40 	movl   $0x40,-0x90(%rbp)
  401378:	00 00 00 
  40137b:	48 8b 85 08 ff ff ff 	mov    -0xf8(%rbp),%rax
  401382:	48 89 85 78 ff ff ff 	mov    %rax,-0x88(%rbp)
  401389:	c7 45 80 45 00 00 00 	movl   $0x45,-0x80(%rbp)
  401390:	48 c7 45 88 01 00 00 	movq   $0x1,-0x78(%rbp)
  401397:	00 
  401398:	c7 45 90 00 00 00 00 	movl   $0x0,-0x70(%rbp)
  40139f:	48 c7 45 98 00 00 00 	movq   $0x0,-0x68(%rbp)
  4013a6:	00 
  4013a7:	48 8d 85 10 ff ff ff 	lea    -0xf0(%rbp),%rax
  4013ae:	48 8d 48 20          	lea    0x20(%rax),%rcx
  4013b2:	48 8d 85 10 ff ff ff 	lea    -0xf0(%rbp),%rax
  4013b9:	48 8d 50 10          	lea    0x10(%rax),%rdx
  4013bd:	48 8d 85 10 ff ff ff 	lea    -0xf0(%rbp),%rax
  4013c4:	49 89 c8             	mov    %rcx,%r8
  4013c7:	48 89 d1             	mov    %rdx,%rcx
  4013ca:	48 89 c2             	mov    %rax,%rdx
  4013cd:	be 01 00 00 00       	mov    $0x1,%esi
  4013d2:	bf f6 10 40 00       	mov    $0x4010f6,%edi
  4013d7:	e8 ff fd ff ff       	callq  4011db <__sel4runtime_start_main>
  4013dc:	90                   	nop
  4013dd:	c9                   	leaveq 
  4013de:	c3                   	retq   

00000000004013df <x64_sys_send_null>:
  4013df:	55                   	push   %rbp
  4013e0:	48 89 e5             	mov    %rsp,%rbp
  4013e3:	53                   	push   %rbx
  4013e4:	48 89 7d f0          	mov    %rdi,-0x10(%rbp)
  4013e8:	48 89 75 e8          	mov    %rsi,-0x18(%rbp)
  4013ec:	48 89 55 e0          	mov    %rdx,-0x20(%rbp)
  4013f0:	48 8b 45 f0          	mov    -0x10(%rbp),%rax
  4013f4:	48 8b 7d e8          	mov    -0x18(%rbp),%rdi
  4013f8:	48 8b 75 e0          	mov    -0x20(%rbp),%rsi
  4013fc:	48 89 c2             	mov    %rax,%rdx
  4013ff:	48 89 e3             	mov    %rsp,%rbx
  401402:	0f 05                	syscall 
  401404:	48 89 dc             	mov    %rbx,%rsp
  401407:	90                   	nop
  401408:	5b                   	pop    %rbx
  401409:	5d                   	pop    %rbp
  40140a:	c3                   	retq   

000000000040140b <seL4_SetTLSBase>:
  40140b:	55                   	push   %rbp
  40140c:	48 89 e5             	mov    %rsp,%rbp
  40140f:	48 83 ec 08          	sub    $0x8,%rsp
  401413:	48 89 7d f8          	mov    %rdi,-0x8(%rbp)
  401417:	48 8b 45 f8          	mov    -0x8(%rbp),%rax
  40141b:	ba 00 00 00 00       	mov    $0x0,%edx
  401420:	48 89 c6             	mov    %rax,%rsi
  401423:	48 c7 c7 e3 ff ff ff 	mov    $0xffffffffffffffe3,%rdi
  40142a:	e8 b0 ff ff ff       	callq  4013df <x64_sys_send_null>
  40142f:	90                   	nop
  401430:	c9                   	leaveq 
  401431:	c3                   	retq   

0000000000401432 <sel4runtime_get_tls_base>:
  401432:	55                   	push   %rbp
  401433:	48 89 e5             	mov    %rsp,%rbp
  401436:	64 48 8b 04 25 00 00 	mov    %fs:0x0,%rax
  40143d:	00 00 
  40143f:	48 89 45 f8          	mov    %rax,-0x8(%rbp)
  401443:	48 8b 45 f8          	mov    -0x8(%rbp),%rax
  401447:	5d                   	pop    %rbp
  401448:	c3                   	retq   

0000000000401449 <sel4runtime_set_tls_base>:
  401449:	55                   	push   %rbp
  40144a:	48 89 e5             	mov    %rsp,%rbp
  40144d:	48 83 ec 08          	sub    $0x8,%rsp
  401451:	48 89 7d f8          	mov    %rdi,-0x8(%rbp)
  401455:	48 8b 45 f8          	mov    -0x8(%rbp),%rax
  401459:	48 89 c7             	mov    %rax,%rdi
  40145c:	e8 aa ff ff ff       	callq  40140b <seL4_SetTLSBase>
  401461:	90                   	nop
  401462:	c9                   	leaveq 
  401463:	c3                   	retq   

0000000000401464 <sel4runtime_process_name>:
  401464:	f3 0f 1e fa          	endbr64 
  401468:	55                   	push   %rbp
  401469:	48 89 e5             	mov    %rsp,%rbp
  40146c:	48 8b 05 ad fb 01 00 	mov    0x1fbad(%rip),%rax        # 421020 <env>
  401473:	5d                   	pop    %rbp
  401474:	c3                   	retq   

0000000000401475 <sel4runtime_argv>:
  401475:	f3 0f 1e fa          	endbr64 
  401479:	55                   	push   %rbp
  40147a:	48 89 e5             	mov    %rsp,%rbp
  40147d:	48 8b 05 0c fc 01 00 	mov    0x1fc0c(%rip),%rax        # 421090 <env+0x70>
  401484:	5d                   	pop    %rbp
  401485:	c3                   	retq   

0000000000401486 <sel4runtime_argc>:
  401486:	f3 0f 1e fa          	endbr64 
  40148a:	55                   	push   %rbp
  40148b:	48 89 e5             	mov    %rsp,%rbp
  40148e:	8b 05 04 fc 01 00    	mov    0x1fc04(%rip),%eax        # 421098 <env+0x78>
  401494:	5d                   	pop    %rbp
  401495:	c3                   	retq   

0000000000401496 <sel4runtime_envp>:
  401496:	f3 0f 1e fa          	endbr64 
  40149a:	55                   	push   %rbp
  40149b:	48 89 e5             	mov    %rsp,%rbp
  40149e:	48 8b 05 03 fc 01 00 	mov    0x1fc03(%rip),%rax        # 4210a8 <env+0x88>
  4014a5:	5d                   	pop    %rbp
  4014a6:	c3                   	retq   

00000000004014a7 <sel4runtime_auxv>:
  4014a7:	f3 0f 1e fa          	endbr64 
  4014ab:	55                   	push   %rbp
  4014ac:	48 89 e5             	mov    %rsp,%rbp
  4014af:	48 8b 05 ea fb 01 00 	mov    0x1fbea(%rip),%rax        # 4210a0 <env+0x80>
  4014b6:	5d                   	pop    %rbp
  4014b7:	c3                   	retq   

00000000004014b8 <sel4runtime_bootinfo>:
  4014b8:	f3 0f 1e fa          	endbr64 
  4014bc:	55                   	push   %rbp
  4014bd:	48 89 e5             	mov    %rsp,%rbp
  4014c0:	48 8b 05 61 fb 01 00 	mov    0x1fb61(%rip),%rax        # 421028 <env+0x8>
  4014c7:	5d                   	pop    %rbp
  4014c8:	c3                   	retq   

00000000004014c9 <sel4runtime_get_tls_size>:
  4014c9:	f3 0f 1e fa          	endbr64 
  4014cd:	55                   	push   %rbp
  4014ce:	48 89 e5             	mov    %rsp,%rbp
  4014d1:	48 8b 05 a0 fb 01 00 	mov    0x1fba0(%rip),%rax        # 421078 <env+0x58>
  4014d8:	5d                   	pop    %rbp
  4014d9:	c3                   	retq   

00000000004014da <sel4runtime_initial_tls_enabled>:
  4014da:	f3 0f 1e fa          	endbr64 
  4014de:	55                   	push   %rbp
  4014df:	48 89 e5             	mov    %rsp,%rbp
  4014e2:	48 8b 05 47 fb 01 00 	mov    0x1fb47(%rip),%rax        # 421030 <env+0x10>
  4014e9:	48 85 c0             	test   %rax,%rax
  4014ec:	0f 95 c0             	setne  %al
  4014ef:	0f b6 c0             	movzbl %al,%eax
  4014f2:	5d                   	pop    %rbp
  4014f3:	c3                   	retq   

00000000004014f4 <sel4runtime_write_tls_image>:
  4014f4:	f3 0f 1e fa          	endbr64 
  4014f8:	55                   	push   %rbp
  4014f9:	48 89 e5             	mov    %rsp,%rbp
  4014fc:	48 83 ec 10          	sub    $0x10,%rsp
  401500:	48 89 7d f8          	mov    %rdi,-0x8(%rbp)
  401504:	48 83 7d f8 00       	cmpq   $0x0,-0x8(%rbp)
  401509:	75 07                	jne    401512 <sel4runtime_write_tls_image+0x1e>
  40150b:	b8 00 00 00 00       	mov    $0x0,%eax
  401510:	eb 18                	jmp    40152a <sel4runtime_write_tls_image+0x36>
  401512:	48 8b 45 f8          	mov    -0x8(%rbp),%rax
  401516:	48 89 c7             	mov    %rax,%rdi
  401519:	e8 89 05 00 00       	callq  401aa7 <copy_tls_data>
  40151e:	48 8b 45 f8          	mov    -0x8(%rbp),%rax
  401522:	48 89 c7             	mov    %rax,%rdi
  401525:	e8 1b 06 00 00       	callq  401b45 <tls_base_from_tls_region>
  40152a:	c9                   	leaveq 
  40152b:	c3                   	retq   

000000000040152c <sel4runtime_move_initial_tls>:
  40152c:	f3 0f 1e fa          	endbr64 
  401530:	55                   	push   %rbp
  401531:	48 89 e5             	mov    %rsp,%rbp
  401534:	48 83 ec 20          	sub    $0x20,%rsp
  401538:	48 89 7d e8          	mov    %rdi,-0x18(%rbp)
  40153c:	48 83 7d e8 00       	cmpq   $0x0,-0x18(%rbp)
  401541:	75 07                	jne    40154a <sel4runtime_move_initial_tls+0x1e>
  401543:	b8 00 00 00 00       	mov    $0x0,%eax
  401548:	eb 6e                	jmp    4015b8 <sel4runtime_move_initial_tls+0x8c>
  40154a:	48 8b 45 e8          	mov    -0x18(%rbp),%rax
  40154e:	48 89 c7             	mov    %rax,%rdi
  401551:	e8 9e ff ff ff       	callq  4014f4 <sel4runtime_write_tls_image>
  401556:	48 89 45 f8          	mov    %rax,-0x8(%rbp)
  40155a:	48 83 7d f8 00       	cmpq   $0x0,-0x8(%rbp)
  40155f:	75 07                	jne    401568 <sel4runtime_move_initial_tls+0x3c>
  401561:	b8 00 00 00 00       	mov    $0x0,%eax
  401566:	eb 50                	jmp    4015b8 <sel4runtime_move_initial_tls+0x8c>
  401568:	48 8b 45 f8          	mov    -0x8(%rbp),%rax
  40156c:	48 89 c7             	mov    %rax,%rdi
  40156f:	e8 d5 fe ff ff       	callq  401449 <sel4runtime_set_tls_base>
  401574:	48 8b 05 c5 fa 01 00 	mov    0x1fac5(%rip),%rax        # 421040 <env+0x20>
  40157b:	48 85 c0             	test   %rax,%rax
  40157e:	74 10                	je     401590 <sel4runtime_move_initial_tls+0x64>
  401580:	48 8b 05 b9 fa 01 00 	mov    0x1fab9(%rip),%rax        # 421040 <env+0x20>
  401587:	64 48 89 04 25 f0 ff 	mov    %rax,%fs:0xfffffffffffffff0
  40158e:	ff ff 
  401590:	48 8b 45 f8          	mov    -0x8(%rbp),%rax
  401594:	48 89 05 95 fa 01 00 	mov    %rax,0x1fa95(%rip)        # 421030 <env+0x10>
  40159b:	48 8b 05 96 fa 01 00 	mov    0x1fa96(%rip),%rax        # 421038 <env+0x18>
  4015a2:	48 85 c0             	test   %rax,%rax
  4015a5:	74 0a                	je     4015b1 <sel4runtime_move_initial_tls+0x85>
  4015a7:	48 8b 05 92 fa 01 00 	mov    0x1fa92(%rip),%rax        # 421040 <env+0x20>
  4015ae:	48 85 c0             	test   %rax,%rax
  4015b1:	48 8b 05 78 fa 01 00 	mov    0x1fa78(%rip),%rax        # 421030 <env+0x10>
  4015b8:	c9                   	leaveq 
  4015b9:	c3                   	retq   

00000000004015ba <sel4runtime_set_exit>:
  4015ba:	f3 0f 1e fa          	endbr64 
  4015be:	55                   	push   %rbp
  4015bf:	48 89 e5             	mov    %rsp,%rbp
  4015c2:	48 89 7d e8          	mov    %rdi,-0x18(%rbp)
  4015c6:	48 8b 05 e3 fa 01 00 	mov    0x1fae3(%rip),%rax        # 4210b0 <env+0x90>
  4015cd:	48 89 45 f8          	mov    %rax,-0x8(%rbp)
  4015d1:	48 8b 45 e8          	mov    -0x18(%rbp),%rax
  4015d5:	48 89 05 d4 fa 01 00 	mov    %rax,0x1fad4(%rip)        # 4210b0 <env+0x90>
  4015dc:	48 8b 45 f8          	mov    -0x8(%rbp),%rax
  4015e0:	5d                   	pop    %rbp
  4015e1:	c3                   	retq   

00000000004015e2 <sel4runtime_set_pre_exit>:
  4015e2:	f3 0f 1e fa          	endbr64 
  4015e6:	55                   	push   %rbp
  4015e7:	48 89 e5             	mov    %rsp,%rbp
  4015ea:	48 89 7d e8          	mov    %rdi,-0x18(%rbp)
  4015ee:	48 8b 05 c3 fa 01 00 	mov    0x1fac3(%rip),%rax        # 4210b8 <env+0x98>
  4015f5:	48 89 45 f8          	mov    %rax,-0x8(%rbp)
  4015f9:	48 8b 45 e8          	mov    -0x18(%rbp),%rax
  4015fd:	48 89 05 b4 fa 01 00 	mov    %rax,0x1fab4(%rip)        # 4210b8 <env+0x98>
  401604:	48 8b 45 f8          	mov    -0x8(%rbp),%rax
  401608:	5d                   	pop    %rbp
  401609:	c3                   	retq   

000000000040160a <sel4runtime_exit>:
  40160a:	f3 0f 1e fa          	endbr64 
  40160e:	55                   	push   %rbp
  40160f:	48 89 e5             	mov    %rsp,%rbp
  401612:	48 83 ec 10          	sub    $0x10,%rsp
  401616:	89 7d fc             	mov    %edi,-0x4(%rbp)
  401619:	48 8b 05 98 fa 01 00 	mov    0x1fa98(%rip),%rax        # 4210b8 <env+0x98>
  401620:	48 85 c0             	test   %rax,%rax
  401623:	74 11                	je     401636 <sel4runtime_exit+0x2c>
  401625:	48 8b 15 8c fa 01 00 	mov    0x1fa8c(%rip),%rdx        # 4210b8 <env+0x98>
  40162c:	8b 45 fc             	mov    -0x4(%rbp),%eax
  40162f:	89 c7                	mov    %eax,%edi
  401631:	ff d2                	callq  *%rdx
  401633:	89 45 fc             	mov    %eax,-0x4(%rbp)
  401636:	e8 94 07 00 00       	callq  401dcf <__sel4runtime_run_destructors>
  40163b:	48 8b 15 6e fa 01 00 	mov    0x1fa6e(%rip),%rdx        # 4210b0 <env+0x90>
  401642:	8b 45 fc             	mov    -0x4(%rbp),%eax
  401645:	89 c7                	mov    %eax,%edi
  401647:	ff d2                	callq  *%rdx
  401649:	90                   	nop
  40164a:	c9                   	leaveq 
  40164b:	c3                   	retq   

000000000040164c <__sel4runtime_write_tls_variable>:
  40164c:	f3 0f 1e fa          	endbr64 
  401650:	55                   	push   %rbp
  401651:	48 89 e5             	mov    %rsp,%rbp
  401654:	48 83 ec 50          	sub    $0x50,%rsp
  401658:	48 89 7d c8          	mov    %rdi,-0x38(%rbp)
  40165c:	48 89 75 c0          	mov    %rsi,-0x40(%rbp)
  401660:	48 89 55 b8          	mov    %rdx,-0x48(%rbp)
  401664:	48 89 4d b0          	mov    %rcx,-0x50(%rbp)
  401668:	e8 c5 fd ff ff       	callq  401432 <sel4runtime_get_tls_base>
  40166d:	48 89 45 f8          	mov    %rax,-0x8(%rbp)
  401671:	48 8b 45 f8          	mov    -0x8(%rbp),%rax
  401675:	48 89 c7             	mov    %rax,%rdi
  401678:	e8 33 05 00 00       	callq  401bb0 <tls_from_tls_base>
  40167d:	48 89 45 f0          	mov    %rax,-0x10(%rbp)
  401681:	48 8b 45 c0          	mov    -0x40(%rbp),%rax
  401685:	48 2b 45 f0          	sub    -0x10(%rbp),%rax
  401689:	48 89 45 e8          	mov    %rax,-0x18(%rbp)
  40168d:	48 8b 05 dc f9 01 00 	mov    0x1f9dc(%rip),%rax        # 421070 <env+0x50>
  401694:	48 89 45 e0          	mov    %rax,-0x20(%rbp)
  401698:	48 8b 45 e8          	mov    -0x18(%rbp),%rax
  40169c:	48 3b 45 e0          	cmp    -0x20(%rbp),%rax
  4016a0:	77 11                	ja     4016b3 <__sel4runtime_write_tls_variable+0x67>
  4016a2:	48 8b 55 e8          	mov    -0x18(%rbp),%rdx
  4016a6:	48 8b 45 b0          	mov    -0x50(%rbp),%rax
  4016aa:	48 01 d0             	add    %rdx,%rax
  4016ad:	48 39 45 e0          	cmp    %rax,-0x20(%rbp)
  4016b1:	73 07                	jae    4016ba <__sel4runtime_write_tls_variable+0x6e>
  4016b3:	b8 ff ff ff ff       	mov    $0xffffffff,%eax
  4016b8:	eb 3b                	jmp    4016f5 <__sel4runtime_write_tls_variable+0xa9>
  4016ba:	48 8b 45 c8          	mov    -0x38(%rbp),%rax
  4016be:	48 89 c7             	mov    %rax,%rdi
  4016c1:	e8 ea 04 00 00       	callq  401bb0 <tls_from_tls_base>
  4016c6:	48 89 45 d8          	mov    %rax,-0x28(%rbp)
  4016ca:	48 8b 55 d8          	mov    -0x28(%rbp),%rdx
  4016ce:	48 8b 45 e8          	mov    -0x18(%rbp),%rax
  4016d2:	48 01 d0             	add    %rdx,%rax
  4016d5:	48 89 45 d0          	mov    %rax,-0x30(%rbp)
  4016d9:	48 8b 55 b0          	mov    -0x50(%rbp),%rdx
  4016dd:	48 8b 4d b8          	mov    -0x48(%rbp),%rcx
  4016e1:	48 8b 45 d0          	mov    -0x30(%rbp),%rax
  4016e5:	48 89 ce             	mov    %rcx,%rsi
  4016e8:	48 89 c7             	mov    %rax,%rdi
  4016eb:	e8 ba 09 00 00       	callq  4020aa <__sel4runtime_memcpy>
  4016f0:	b8 00 00 00 00       	mov    $0x0,%eax
  4016f5:	c9                   	leaveq 
  4016f6:	c3                   	retq   

00000000004016f7 <__sel4runtime_load_env>:
  4016f7:	f3 0f 1e fa          	endbr64 
  4016fb:	55                   	push   %rbp
  4016fc:	48 89 e5             	mov    %rsp,%rbp
  4016ff:	48 83 ec 20          	sub    $0x20,%rsp
  401703:	89 7d fc             	mov    %edi,-0x4(%rbp)
  401706:	48 89 75 f0          	mov    %rsi,-0x10(%rbp)
  40170a:	48 89 55 e8          	mov    %rdx,-0x18(%rbp)
  40170e:	48 89 4d e0          	mov    %rcx,-0x20(%rbp)
  401712:	e8 ad 05 00 00       	callq  401cc4 <empty_tls>
  401717:	48 8b 45 e0          	mov    -0x20(%rbp),%rax
  40171b:	48 89 c7             	mov    %rax,%rdi
  40171e:	e8 99 00 00 00       	callq  4017bc <parse_auxv>
  401723:	e8 2e 02 00 00       	callq  401956 <parse_phdrs>
  401728:	83 7d fc 00          	cmpl   $0x0,-0x4(%rbp)
  40172c:	7e 0f                	jle    40173d <__sel4runtime_load_env+0x46>
  40172e:	48 8b 45 f0          	mov    -0x10(%rbp),%rax
  401732:	48 8b 00             	mov    (%rax),%rax
  401735:	48 89 c7             	mov    %rax,%rdi
  401738:	e8 32 00 00 00       	callq  40176f <name_process>
  40173d:	e8 41 03 00 00       	callq  401a83 <try_init_static_tls>
  401742:	8b 45 fc             	mov    -0x4(%rbp),%eax
  401745:	89 05 4d f9 01 00    	mov    %eax,0x1f94d(%rip)        # 421098 <env+0x78>
  40174b:	48 8b 45 f0          	mov    -0x10(%rbp),%rax
  40174f:	48 89 05 3a f9 01 00 	mov    %rax,0x1f93a(%rip)        # 421090 <env+0x70>
  401756:	48 8b 45 e0          	mov    -0x20(%rbp),%rax
  40175a:	48 89 05 3f f9 01 00 	mov    %rax,0x1f93f(%rip)        # 4210a0 <env+0x80>
  401761:	48 8b 45 e8          	mov    -0x18(%rbp),%rax
  401765:	48 89 05 3c f9 01 00 	mov    %rax,0x1f93c(%rip)        # 4210a8 <env+0x88>
  40176c:	90                   	nop
  40176d:	c9                   	leaveq 
  40176e:	c3                   	retq   

000000000040176f <name_process>:
  40176f:	f3 0f 1e fa          	endbr64 
  401773:	55                   	push   %rbp
  401774:	48 89 e5             	mov    %rsp,%rbp
  401777:	48 89 7d f8          	mov    %rdi,-0x8(%rbp)
  40177b:	48 8b 45 f8          	mov    -0x8(%rbp),%rax
  40177f:	48 89 05 9a f8 01 00 	mov    %rax,0x1f89a(%rip)        # 421020 <env>
  401786:	eb 1f                	jmp    4017a7 <name_process+0x38>
  401788:	48 8b 45 f8          	mov    -0x8(%rbp),%rax
  40178c:	0f b6 00             	movzbl (%rax),%eax
  40178f:	3c 2f                	cmp    $0x2f,%al
  401791:	75 0f                	jne    4017a2 <name_process+0x33>
  401793:	48 8b 45 f8          	mov    -0x8(%rbp),%rax
  401797:	48 83 c0 01          	add    $0x1,%rax
  40179b:	48 89 05 7e f8 01 00 	mov    %rax,0x1f87e(%rip)        # 421020 <env>
  4017a2:	48 83 45 f8 01       	addq   $0x1,-0x8(%rbp)
  4017a7:	48 83 7d f8 00       	cmpq   $0x0,-0x8(%rbp)
  4017ac:	74 0b                	je     4017b9 <name_process+0x4a>
  4017ae:	48 8b 45 f8          	mov    -0x8(%rbp),%rax
  4017b2:	0f b6 00             	movzbl (%rax),%eax
  4017b5:	84 c0                	test   %al,%al
  4017b7:	75 cf                	jne    401788 <name_process+0x19>
  4017b9:	90                   	nop
  4017ba:	5d                   	pop    %rbp
  4017bb:	c3                   	retq   

00000000004017bc <parse_auxv>:
  4017bc:	f3 0f 1e fa          	endbr64 
  4017c0:	55                   	push   %rbp
  4017c1:	48 89 e5             	mov    %rsp,%rbp
  4017c4:	48 89 7d e8          	mov    %rdi,-0x18(%rbp)
  4017c8:	c7 45 fc 00 00 00 00 	movl   $0x0,-0x4(%rbp)
  4017cf:	e9 61 01 00 00       	jmpq   401935 <parse_auxv+0x179>
  4017d4:	8b 45 fc             	mov    -0x4(%rbp),%eax
  4017d7:	48 98                	cltq   
  4017d9:	48 c1 e0 04          	shl    $0x4,%rax
  4017dd:	48 89 c2             	mov    %rax,%rdx
  4017e0:	48 8b 45 e8          	mov    -0x18(%rbp),%rax
  4017e4:	48 01 d0             	add    %rdx,%rax
  4017e7:	8b 00                	mov    (%rax),%eax
  4017e9:	83 f8 45             	cmp    $0x45,%eax
  4017ec:	0f 84 1b 01 00 00    	je     40190d <parse_auxv+0x151>
  4017f2:	83 f8 45             	cmp    $0x45,%eax
  4017f5:	0f 8f 32 01 00 00    	jg     40192d <parse_auxv+0x171>
  4017fb:	83 f8 43             	cmp    $0x43,%eax
  4017fe:	0f 84 e9 00 00 00    	je     4018ed <parse_auxv+0x131>
  401804:	83 f8 43             	cmp    $0x43,%eax
  401807:	0f 8f 20 01 00 00    	jg     40192d <parse_auxv+0x171>
  40180d:	83 f8 40             	cmp    $0x40,%eax
  401810:	0f 84 8e 00 00 00    	je     4018a4 <parse_auxv+0xe8>
  401816:	83 f8 40             	cmp    $0x40,%eax
  401819:	0f 8f 0e 01 00 00    	jg     40192d <parse_auxv+0x171>
  40181f:	83 f8 05             	cmp    $0x5,%eax
  401822:	74 3a                	je     40185e <parse_auxv+0xa2>
  401824:	83 f8 05             	cmp    $0x5,%eax
  401827:	0f 8f 00 01 00 00    	jg     40192d <parse_auxv+0x171>
  40182d:	83 f8 03             	cmp    $0x3,%eax
  401830:	74 4f                	je     401881 <parse_auxv+0xc5>
  401832:	83 f8 04             	cmp    $0x4,%eax
  401835:	0f 85 f2 00 00 00    	jne    40192d <parse_auxv+0x171>
  40183b:	8b 45 fc             	mov    -0x4(%rbp),%eax
  40183e:	48 98                	cltq   
  401840:	48 c1 e0 04          	shl    $0x4,%rax
  401844:	48 89 c2             	mov    %rax,%rdx
  401847:	48 8b 45 e8          	mov    -0x18(%rbp),%rax
  40184b:	48 01 d0             	add    %rdx,%rax
  40184e:	48 8b 40 08          	mov    0x8(%rax),%rax
  401852:	48 89 05 f7 f7 01 00 	mov    %rax,0x1f7f7(%rip)        # 421050 <env+0x30>
  401859:	e9 d3 00 00 00       	jmpq   401931 <parse_auxv+0x175>
  40185e:	8b 45 fc             	mov    -0x4(%rbp),%eax
  401861:	48 98                	cltq   
  401863:	48 c1 e0 04          	shl    $0x4,%rax
  401867:	48 89 c2             	mov    %rax,%rdx
  40186a:	48 8b 45 e8          	mov    -0x18(%rbp),%rax
  40186e:	48 01 d0             	add    %rdx,%rax
  401871:	48 8b 40 08          	mov    0x8(%rax),%rax
  401875:	48 89 05 cc f7 01 00 	mov    %rax,0x1f7cc(%rip)        # 421048 <env+0x28>
  40187c:	e9 b0 00 00 00       	jmpq   401931 <parse_auxv+0x175>
  401881:	8b 45 fc             	mov    -0x4(%rbp),%eax
  401884:	48 98                	cltq   
  401886:	48 c1 e0 04          	shl    $0x4,%rax
  40188a:	48 89 c2             	mov    %rax,%rdx
  40188d:	48 8b 45 e8          	mov    -0x18(%rbp),%rax
  401891:	48 01 d0             	add    %rdx,%rax
  401894:	48 8b 40 08          	mov    0x8(%rax),%rax
  401898:	48 89 05 b9 f7 01 00 	mov    %rax,0x1f7b9(%rip)        # 421058 <env+0x38>
  40189f:	e9 8d 00 00 00       	jmpq   401931 <parse_auxv+0x175>
  4018a4:	8b 45 fc             	mov    -0x4(%rbp),%eax
  4018a7:	48 98                	cltq   
  4018a9:	48 c1 e0 04          	shl    $0x4,%rax
  4018ad:	48 89 c2             	mov    %rax,%rdx
  4018b0:	48 8b 45 e8          	mov    -0x18(%rbp),%rax
  4018b4:	48 01 d0             	add    %rdx,%rax
  4018b7:	48 8b 40 08          	mov    0x8(%rax),%rax
  4018bb:	48 89 45 f0          	mov    %rax,-0x10(%rbp)
  4018bf:	48 83 7d f0 00       	cmpq   $0x0,-0x10(%rbp)
  4018c4:	74 6a                	je     401930 <parse_auxv+0x174>
  4018c6:	48 8b 45 f0          	mov    -0x10(%rbp),%rax
  4018ca:	48 89 05 57 f7 01 00 	mov    %rax,0x1f757(%rip)        # 421028 <env+0x8>
  4018d1:	48 8b 45 f0          	mov    -0x10(%rbp),%rax
  4018d5:	48 8b 40 20          	mov    0x20(%rax),%rax
  4018d9:	48 89 05 60 f7 01 00 	mov    %rax,0x1f760(%rip)        # 421040 <env+0x20>
  4018e0:	48 c7 05 4d f7 01 00 	movq   $0x1,0x1f74d(%rip)        # 421038 <env+0x18>
  4018e7:	01 00 00 00 
  4018eb:	eb 44                	jmp    401931 <parse_auxv+0x175>
  4018ed:	8b 45 fc             	mov    -0x4(%rbp),%eax
  4018f0:	48 98                	cltq   
  4018f2:	48 c1 e0 04          	shl    $0x4,%rax
  4018f6:	48 89 c2             	mov    %rax,%rdx
  4018f9:	48 8b 45 e8          	mov    -0x18(%rbp),%rax
  4018fd:	48 01 d0             	add    %rdx,%rax
  401900:	48 8b 40 08          	mov    0x8(%rax),%rax
  401904:	48 89 05 35 f7 01 00 	mov    %rax,0x1f735(%rip)        # 421040 <env+0x20>
  40190b:	eb 24                	jmp    401931 <parse_auxv+0x175>
  40190d:	8b 45 fc             	mov    -0x4(%rbp),%eax
  401910:	48 98                	cltq   
  401912:	48 c1 e0 04          	shl    $0x4,%rax
  401916:	48 89 c2             	mov    %rax,%rdx
  401919:	48 8b 45 e8          	mov    -0x18(%rbp),%rax
  40191d:	48 01 d0             	add    %rdx,%rax
  401920:	48 8b 40 08          	mov    0x8(%rax),%rax
  401924:	48 89 05 0d f7 01 00 	mov    %rax,0x1f70d(%rip)        # 421038 <env+0x18>
  40192b:	eb 04                	jmp    401931 <parse_auxv+0x175>
  40192d:	90                   	nop
  40192e:	eb 01                	jmp    401931 <parse_auxv+0x175>
  401930:	90                   	nop
  401931:	83 45 fc 01          	addl   $0x1,-0x4(%rbp)
  401935:	8b 45 fc             	mov    -0x4(%rbp),%eax
  401938:	48 98                	cltq   
  40193a:	48 c1 e0 04          	shl    $0x4,%rax
  40193e:	48 89 c2             	mov    %rax,%rdx
  401941:	48 8b 45 e8          	mov    -0x18(%rbp),%rax
  401945:	48 01 d0             	add    %rdx,%rax
  401948:	8b 00                	mov    (%rax),%eax
  40194a:	85 c0                	test   %eax,%eax
  40194c:	0f 85 82 fe ff ff    	jne    4017d4 <parse_auxv+0x18>
  401952:	90                   	nop
  401953:	90                   	nop
  401954:	5d                   	pop    %rbp
  401955:	c3                   	retq   

0000000000401956 <parse_phdrs>:
  401956:	f3 0f 1e fa          	endbr64 
  40195a:	55                   	push   %rbp
  40195b:	48 89 e5             	mov    %rsp,%rbp
  40195e:	48 83 ec 10          	sub    $0x10,%rsp
  401962:	48 c7 45 f8 00 00 00 	movq   $0x0,-0x8(%rbp)
  401969:	00 
  40196a:	eb 35                	jmp    4019a1 <parse_phdrs+0x4b>
  40196c:	48 8b 15 e5 f6 01 00 	mov    0x1f6e5(%rip),%rdx        # 421058 <env+0x38>
  401973:	48 8b 45 f8          	mov    -0x8(%rbp),%rax
  401977:	48 6b c0 38          	imul   $0x38,%rax,%rax
  40197b:	48 01 d0             	add    %rdx,%rax
  40197e:	48 89 45 f0          	mov    %rax,-0x10(%rbp)
  401982:	48 8b 45 f0          	mov    -0x10(%rbp),%rax
  401986:	8b 00                	mov    (%rax),%eax
  401988:	83 f8 07             	cmp    $0x7,%eax
  40198b:	75 0e                	jne    40199b <parse_phdrs+0x45>
  40198d:	48 8b 45 f0          	mov    -0x10(%rbp),%rax
  401991:	48 89 c7             	mov    %rax,%rdi
  401994:	e8 19 00 00 00       	callq  4019b2 <load_tls_data>
  401999:	eb 01                	jmp    40199c <parse_phdrs+0x46>
  40199b:	90                   	nop
  40199c:	48 83 45 f8 01       	addq   $0x1,-0x8(%rbp)
  4019a1:	48 8b 05 a0 f6 01 00 	mov    0x1f6a0(%rip),%rax        # 421048 <env+0x28>
  4019a8:	48 39 45 f8          	cmp    %rax,-0x8(%rbp)
  4019ac:	72 be                	jb     40196c <parse_phdrs+0x16>
  4019ae:	90                   	nop
  4019af:	90                   	nop
  4019b0:	c9                   	leaveq 
  4019b1:	c3                   	retq   

00000000004019b2 <load_tls_data>:
  4019b2:	f3 0f 1e fa          	endbr64 
  4019b6:	55                   	push   %rbp
  4019b7:	48 89 e5             	mov    %rsp,%rbp
  4019ba:	48 83 ec 20          	sub    $0x20,%rsp
  4019be:	48 89 7d e8          	mov    %rdi,-0x18(%rbp)
  4019c2:	48 8b 45 e8          	mov    -0x18(%rbp),%rax
  4019c6:	48 8b 40 10          	mov    0x10(%rax),%rax
  4019ca:	48 89 05 8f f6 01 00 	mov    %rax,0x1f68f(%rip)        # 421060 <env+0x40>
  4019d1:	48 8b 45 e8          	mov    -0x18(%rbp),%rax
  4019d5:	48 8b 40 30          	mov    0x30(%rax),%rax
  4019d9:	48 83 f8 10          	cmp    $0x10,%rax
  4019dd:	76 11                	jbe    4019f0 <load_tls_data+0x3e>
  4019df:	48 8b 45 e8          	mov    -0x18(%rbp),%rax
  4019e3:	48 8b 40 30          	mov    0x30(%rax),%rax
  4019e7:	48 89 05 92 f6 01 00 	mov    %rax,0x1f692(%rip)        # 421080 <env+0x60>
  4019ee:	eb 0b                	jmp    4019fb <load_tls_data+0x49>
  4019f0:	48 c7 05 85 f6 01 00 	movq   $0x10,0x1f685(%rip)        # 421080 <env+0x60>
  4019f7:	10 00 00 00 
  4019fb:	48 8b 45 e8          	mov    -0x18(%rbp),%rax
  4019ff:	48 8b 40 20          	mov    0x20(%rax),%rax
  401a03:	48 89 05 5e f6 01 00 	mov    %rax,0x1f65e(%rip)        # 421068 <env+0x48>
  401a0a:	48 8b 45 e8          	mov    -0x18(%rbp),%rax
  401a0e:	48 8b 40 28          	mov    0x28(%rax),%rax
  401a12:	48 89 45 f8          	mov    %rax,-0x8(%rbp)
  401a16:	48 8b 45 e8          	mov    -0x18(%rbp),%rax
  401a1a:	48 8b 40 30          	mov    0x30(%rax),%rax
  401a1e:	48 89 45 f0          	mov    %rax,-0x10(%rbp)
  401a22:	48 8b 45 f8          	mov    -0x8(%rbp),%rax
  401a26:	ba 00 00 00 00       	mov    $0x0,%edx
  401a2b:	48 f7 75 f0          	divq   -0x10(%rbp)
  401a2f:	48 89 d0             	mov    %rdx,%rax
  401a32:	48 85 c0             	test   %rax,%rax
  401a35:	74 16                	je     401a4d <load_tls_data+0x9b>
  401a37:	48 8b 45 f8          	mov    -0x8(%rbp),%rax
  401a3b:	ba 00 00 00 00       	mov    $0x0,%edx
  401a40:	48 f7 75 f0          	divq   -0x10(%rbp)
  401a44:	48 8b 45 f0          	mov    -0x10(%rbp),%rax
  401a48:	48 29 d0             	sub    %rdx,%rax
  401a4b:	eb 05                	jmp    401a52 <load_tls_data+0xa0>
  401a4d:	b8 00 00 00 00       	mov    $0x0,%eax
  401a52:	48 8b 55 f8          	mov    -0x8(%rbp),%rdx
  401a56:	48 01 d0             	add    %rdx,%rax
  401a59:	48 89 05 10 f6 01 00 	mov    %rax,0x1f610(%rip)        # 421070 <env+0x50>
  401a60:	48 8b 15 19 f6 01 00 	mov    0x1f619(%rip),%rdx        # 421080 <env+0x60>
  401a67:	48 8b 05 02 f6 01 00 	mov    0x1f602(%rip),%rax        # 421070 <env+0x50>
  401a6e:	48 89 d6             	mov    %rdx,%rsi
  401a71:	48 89 c7             	mov    %rax,%rdi
  401a74:	e8 a0 01 00 00       	callq  401c19 <tls_region_size>
  401a79:	48 89 05 f8 f5 01 00 	mov    %rax,0x1f5f8(%rip)        # 421078 <env+0x58>
  401a80:	90                   	nop
  401a81:	c9                   	leaveq 
  401a82:	c3                   	retq   

0000000000401a83 <try_init_static_tls>:
  401a83:	f3 0f 1e fa          	endbr64 
  401a87:	55                   	push   %rbp
  401a88:	48 89 e5             	mov    %rsp,%rbp
  401a8b:	48 8b 05 e6 f5 01 00 	mov    0x1f5e6(%rip),%rax        # 421078 <env+0x58>
  401a92:	48 3d 00 40 00 00    	cmp    $0x4000,%rax
  401a98:	77 0a                	ja     401aa4 <try_init_static_tls+0x21>
  401a9a:	bf 20 d0 41 00       	mov    $0x41d020,%edi
  401a9f:	e8 88 fa ff ff       	callq  40152c <sel4runtime_move_initial_tls>
  401aa4:	90                   	nop
  401aa5:	5d                   	pop    %rbp
  401aa6:	c3                   	retq   

0000000000401aa7 <copy_tls_data>:
  401aa7:	f3 0f 1e fa          	endbr64 
  401aab:	55                   	push   %rbp
  401aac:	48 89 e5             	mov    %rsp,%rbp
  401aaf:	48 83 ec 30          	sub    $0x30,%rsp
  401ab3:	48 89 7d d8          	mov    %rdi,-0x28(%rbp)
  401ab7:	48 8b 45 d8          	mov    -0x28(%rbp),%rax
  401abb:	48 89 c7             	mov    %rax,%rdi
  401abe:	e8 12 01 00 00       	callq  401bd5 <tls_from_tls_region>
  401ac3:	48 89 45 f8          	mov    %rax,-0x8(%rbp)
  401ac7:	48 8b 15 9a f5 01 00 	mov    0x1f59a(%rip),%rdx        # 421068 <env+0x48>
  401ace:	48 8b 0d 8b f5 01 00 	mov    0x1f58b(%rip),%rcx        # 421060 <env+0x40>
  401ad5:	48 8b 45 f8          	mov    -0x8(%rbp),%rax
  401ad9:	48 89 ce             	mov    %rcx,%rsi
  401adc:	48 89 c7             	mov    %rax,%rdi
  401adf:	e8 c6 05 00 00       	callq  4020aa <__sel4runtime_memcpy>
  401ae4:	48 8b 15 7d f5 01 00 	mov    0x1f57d(%rip),%rdx        # 421068 <env+0x48>
  401aeb:	48 8b 45 f8          	mov    -0x8(%rbp),%rax
  401aef:	48 01 d0             	add    %rdx,%rax
  401af2:	48 89 45 f0          	mov    %rax,-0x10(%rbp)
  401af6:	48 8b 15 73 f5 01 00 	mov    0x1f573(%rip),%rdx        # 421070 <env+0x50>
  401afd:	48 8b 05 64 f5 01 00 	mov    0x1f564(%rip),%rax        # 421068 <env+0x48>
  401b04:	48 29 c2             	sub    %rax,%rdx
  401b07:	48 8b 45 f0          	mov    -0x10(%rbp),%rax
  401b0b:	be 00 00 00 00       	mov    $0x0,%esi
  401b10:	48 89 c7             	mov    %rax,%rdi
  401b13:	e8 01 03 00 00       	callq  401e19 <__sel4runtime_memset>
  401b18:	48 8b 45 d8          	mov    -0x28(%rbp),%rax
  401b1c:	48 89 c7             	mov    %rax,%rdi
  401b1f:	e8 d7 00 00 00       	callq  401bfb <thread_lookup_from_tls_region>
  401b24:	48 89 45 e8          	mov    %rax,-0x18(%rbp)
  401b28:	48 83 7d e8 00       	cmpq   $0x0,-0x18(%rbp)
  401b2d:	74 13                	je     401b42 <copy_tls_data+0x9b>
  401b2f:	48 8b 45 d8          	mov    -0x28(%rbp),%rax
  401b33:	48 89 c7             	mov    %rax,%rdi
  401b36:	e8 0a 00 00 00       	callq  401b45 <tls_base_from_tls_region>
  401b3b:	48 8b 55 e8          	mov    -0x18(%rbp),%rdx
  401b3f:	48 89 02             	mov    %rax,(%rdx)
  401b42:	90                   	nop
  401b43:	c9                   	leaveq 
  401b44:	c3                   	retq   

0000000000401b45 <tls_base_from_tls_region>:
  401b45:	f3 0f 1e fa          	endbr64 
  401b49:	55                   	push   %rbp
  401b4a:	48 89 e5             	mov    %rsp,%rbp
  401b4d:	48 89 7d d8          	mov    %rdi,-0x28(%rbp)
  401b51:	48 8b 45 d8          	mov    -0x28(%rbp),%rax
  401b55:	48 89 45 f8          	mov    %rax,-0x8(%rbp)
  401b59:	48 8b 05 10 f5 01 00 	mov    0x1f510(%rip),%rax        # 421070 <env+0x50>
  401b60:	48 01 45 f8          	add    %rax,-0x8(%rbp)
  401b64:	48 8b 45 f8          	mov    -0x8(%rbp),%rax
  401b68:	48 89 45 f0          	mov    %rax,-0x10(%rbp)
  401b6c:	48 8b 05 0d f5 01 00 	mov    0x1f50d(%rip),%rax        # 421080 <env+0x60>
  401b73:	48 89 45 e8          	mov    %rax,-0x18(%rbp)
  401b77:	48 8b 45 f0          	mov    -0x10(%rbp),%rax
  401b7b:	ba 00 00 00 00       	mov    $0x0,%edx
  401b80:	48 f7 75 e8          	divq   -0x18(%rbp)
  401b84:	48 89 d0             	mov    %rdx,%rax
  401b87:	48 85 c0             	test   %rax,%rax
  401b8a:	74 16                	je     401ba2 <tls_base_from_tls_region+0x5d>
  401b8c:	48 8b 45 f0          	mov    -0x10(%rbp),%rax
  401b90:	ba 00 00 00 00       	mov    $0x0,%edx
  401b95:	48 f7 75 e8          	divq   -0x18(%rbp)
  401b99:	48 8b 45 e8          	mov    -0x18(%rbp),%rax
  401b9d:	48 29 d0             	sub    %rdx,%rax
  401ba0:	eb 05                	jmp    401ba7 <tls_base_from_tls_region+0x62>
  401ba2:	b8 00 00 00 00       	mov    $0x0,%eax
  401ba7:	48 8b 55 f0          	mov    -0x10(%rbp),%rdx
  401bab:	48 01 d0             	add    %rdx,%rax
  401bae:	5d                   	pop    %rbp
  401baf:	c3                   	retq   

0000000000401bb0 <tls_from_tls_base>:
  401bb0:	f3 0f 1e fa          	endbr64 
  401bb4:	55                   	push   %rbp
  401bb5:	48 89 e5             	mov    %rsp,%rbp
  401bb8:	48 89 7d e8          	mov    %rdi,-0x18(%rbp)
  401bbc:	48 8b 45 e8          	mov    -0x18(%rbp),%rax
  401bc0:	48 89 45 f8          	mov    %rax,-0x8(%rbp)
  401bc4:	48 8b 05 a5 f4 01 00 	mov    0x1f4a5(%rip),%rax        # 421070 <env+0x50>
  401bcb:	48 29 45 f8          	sub    %rax,-0x8(%rbp)
  401bcf:	48 8b 45 f8          	mov    -0x8(%rbp),%rax
  401bd3:	5d                   	pop    %rbp
  401bd4:	c3                   	retq   

0000000000401bd5 <tls_from_tls_region>:
  401bd5:	f3 0f 1e fa          	endbr64 
  401bd9:	55                   	push   %rbp
  401bda:	48 89 e5             	mov    %rsp,%rbp
  401bdd:	48 83 ec 08          	sub    $0x8,%rsp
  401be1:	48 89 7d f8          	mov    %rdi,-0x8(%rbp)
  401be5:	48 8b 45 f8          	mov    -0x8(%rbp),%rax
  401be9:	48 89 c7             	mov    %rax,%rdi
  401bec:	e8 54 ff ff ff       	callq  401b45 <tls_base_from_tls_region>
  401bf1:	48 89 c7             	mov    %rax,%rdi
  401bf4:	e8 b7 ff ff ff       	callq  401bb0 <tls_from_tls_base>
  401bf9:	c9                   	leaveq 
  401bfa:	c3                   	retq   

0000000000401bfb <thread_lookup_from_tls_region>:
  401bfb:	f3 0f 1e fa          	endbr64 
  401bff:	55                   	push   %rbp
  401c00:	48 89 e5             	mov    %rsp,%rbp
  401c03:	48 83 ec 08          	sub    $0x8,%rsp
  401c07:	48 89 7d f8          	mov    %rdi,-0x8(%rbp)
  401c0b:	48 8b 45 f8          	mov    -0x8(%rbp),%rax
  401c0f:	48 89 c7             	mov    %rax,%rdi
  401c12:	e8 2e ff ff ff       	callq  401b45 <tls_base_from_tls_region>
  401c17:	c9                   	leaveq 
  401c18:	c3                   	retq   

0000000000401c19 <tls_region_size>:
  401c19:	f3 0f 1e fa          	endbr64 
  401c1d:	55                   	push   %rbp
  401c1e:	48 89 e5             	mov    %rsp,%rbp
  401c21:	48 89 7d d8          	mov    %rdi,-0x28(%rbp)
  401c25:	48 89 75 d0          	mov    %rsi,-0x30(%rbp)
  401c29:	48 c7 45 f8 08 00 00 	movq   $0x8,-0x8(%rbp)
  401c30:	00 
  401c31:	48 8b 45 d0          	mov    -0x30(%rbp),%rax
  401c35:	48 89 45 f0          	mov    %rax,-0x10(%rbp)
  401c39:	48 8b 45 f8          	mov    -0x8(%rbp),%rax
  401c3d:	ba 00 00 00 00       	mov    $0x0,%edx
  401c42:	48 f7 75 f0          	divq   -0x10(%rbp)
  401c46:	48 89 d0             	mov    %rdx,%rax
  401c49:	48 85 c0             	test   %rax,%rax
  401c4c:	74 16                	je     401c64 <tls_region_size+0x4b>
  401c4e:	48 8b 45 f8          	mov    -0x8(%rbp),%rax
  401c52:	ba 00 00 00 00       	mov    $0x0,%edx
  401c57:	48 f7 75 f0          	divq   -0x10(%rbp)
  401c5b:	48 8b 45 f0          	mov    -0x10(%rbp),%rax
  401c5f:	48 29 d0             	sub    %rdx,%rax
  401c62:	eb 05                	jmp    401c69 <tls_region_size+0x50>
  401c64:	b8 00 00 00 00       	mov    $0x0,%eax
  401c69:	48 8b 55 f8          	mov    -0x8(%rbp),%rdx
  401c6d:	48 01 c2             	add    %rax,%rdx
  401c70:	48 8b 45 d0          	mov    -0x30(%rbp),%rax
  401c74:	48 8d 0c 02          	lea    (%rdx,%rax,1),%rcx
  401c78:	48 8b 45 d8          	mov    -0x28(%rbp),%rax
  401c7c:	48 89 45 e8          	mov    %rax,-0x18(%rbp)
  401c80:	48 8b 45 d0          	mov    -0x30(%rbp),%rax
  401c84:	48 89 45 e0          	mov    %rax,-0x20(%rbp)
  401c88:	48 8b 45 e8          	mov    -0x18(%rbp),%rax
  401c8c:	ba 00 00 00 00       	mov    $0x0,%edx
  401c91:	48 f7 75 e0          	divq   -0x20(%rbp)
  401c95:	48 89 d0             	mov    %rdx,%rax
  401c98:	48 85 c0             	test   %rax,%rax
  401c9b:	74 16                	je     401cb3 <tls_region_size+0x9a>
  401c9d:	48 8b 45 e8          	mov    -0x18(%rbp),%rax
  401ca1:	ba 00 00 00 00       	mov    $0x0,%edx
  401ca6:	48 f7 75 e0          	divq   -0x20(%rbp)
  401caa:	48 8b 45 e0          	mov    -0x20(%rbp),%rax
  401cae:	48 29 d0             	sub    %rdx,%rax
  401cb1:	eb 05                	jmp    401cb8 <tls_region_size+0x9f>
  401cb3:	b8 00 00 00 00       	mov    $0x0,%eax
  401cb8:	48 8b 55 e8          	mov    -0x18(%rbp),%rdx
  401cbc:	48 01 d0             	add    %rdx,%rax
  401cbf:	48 01 c8             	add    %rcx,%rax
  401cc2:	5d                   	pop    %rbp
  401cc3:	c3                   	retq   

0000000000401cc4 <empty_tls>:
  401cc4:	f3 0f 1e fa          	endbr64 
  401cc8:	55                   	push   %rbp
  401cc9:	48 89 e5             	mov    %rsp,%rbp
  401ccc:	48 c7 05 89 f3 01 00 	movq   $0x0,0x1f389(%rip)        # 421060 <env+0x40>
  401cd3:	00 00 00 00 
  401cd7:	48 c7 05 9e f3 01 00 	movq   $0x10,0x1f39e(%rip)        # 421080 <env+0x60>
  401cde:	10 00 00 00 
  401ce2:	48 c7 05 7b f3 01 00 	movq   $0x0,0x1f37b(%rip)        # 421068 <env+0x48>
  401ce9:	00 00 00 00 
  401ced:	48 c7 05 78 f3 01 00 	movq   $0x0,0x1f378(%rip)        # 421070 <env+0x50>
  401cf4:	00 00 00 00 
  401cf8:	48 8b 15 81 f3 01 00 	mov    0x1f381(%rip),%rdx        # 421080 <env+0x60>
  401cff:	48 8b 05 6a f3 01 00 	mov    0x1f36a(%rip),%rax        # 421070 <env+0x50>
  401d06:	48 89 d6             	mov    %rdx,%rsi
  401d09:	48 89 c7             	mov    %rax,%rdi
  401d0c:	e8 08 ff ff ff       	callq  401c19 <tls_region_size>
  401d11:	48 89 05 60 f3 01 00 	mov    %rax,0x1f360(%rip)        # 421078 <env+0x58>
  401d18:	90                   	nop
  401d19:	5d                   	pop    %rbp
  401d1a:	c3                   	retq   

0000000000401d1b <is_initial_thread>:
  401d1b:	f3 0f 1e fa          	endbr64 
  401d1f:	55                   	push   %rbp
  401d20:	48 89 e5             	mov    %rsp,%rbp
  401d23:	48 8b 05 06 f3 01 00 	mov    0x1f306(%rip),%rax        # 421030 <env+0x10>
  401d2a:	48 85 c0             	test   %rax,%rax
  401d2d:	74 11                	je     401d40 <is_initial_thread+0x25>
  401d2f:	e8 fe f6 ff ff       	callq  401432 <sel4runtime_get_tls_base>
  401d34:	48 8b 15 f5 f2 01 00 	mov    0x1f2f5(%rip),%rdx        # 421030 <env+0x10>
  401d3b:	48 39 d0             	cmp    %rdx,%rax
  401d3e:	75 07                	jne    401d47 <is_initial_thread+0x2c>
  401d40:	b8 01 00 00 00       	mov    $0x1,%eax
  401d45:	eb 05                	jmp    401d4c <is_initial_thread+0x31>
  401d47:	b8 00 00 00 00       	mov    $0x0,%eax
  401d4c:	5d                   	pop    %rbp
  401d4d:	c3                   	retq   

0000000000401d4e <__sel4runtime_run_constructors>:
  401d4e:	f3 0f 1e fa          	endbr64 
  401d52:	55                   	push   %rbp
  401d53:	48 89 e5             	mov    %rsp,%rbp
  401d56:	48 83 ec 10          	sub    $0x10,%rsp
  401d5a:	b8 d0 6f 41 00       	mov    $0x416fd0,%eax
  401d5f:	48 2d d0 6f 41 00    	sub    $0x416fd0,%rax
  401d65:	48 c1 f8 03          	sar    $0x3,%rax
  401d69:	89 45 f4             	mov    %eax,-0xc(%rbp)
  401d6c:	c7 45 fc 00 00 00 00 	movl   $0x0,-0x4(%rbp)
  401d73:	eb 13                	jmp    401d88 <__sel4runtime_run_constructors+0x3a>
  401d75:	8b 45 fc             	mov    -0x4(%rbp),%eax
  401d78:	48 98                	cltq   
  401d7a:	48 8b 04 c5 d0 6f 41 	mov    0x416fd0(,%rax,8),%rax
  401d81:	00 
  401d82:	ff d0                	callq  *%rax
  401d84:	83 45 fc 01          	addl   $0x1,-0x4(%rbp)
  401d88:	8b 45 fc             	mov    -0x4(%rbp),%eax
  401d8b:	3b 45 f4             	cmp    -0xc(%rbp),%eax
  401d8e:	7c e5                	jl     401d75 <__sel4runtime_run_constructors+0x27>
  401d90:	e8 6b f2 ff ff       	callq  401000 <_init>
  401d95:	b8 f8 6f 41 00       	mov    $0x416ff8,%eax
  401d9a:	48 2d d0 6f 41 00    	sub    $0x416fd0,%rax
  401da0:	48 c1 f8 03          	sar    $0x3,%rax
  401da4:	89 45 f0             	mov    %eax,-0x10(%rbp)
  401da7:	c7 45 f8 00 00 00 00 	movl   $0x0,-0x8(%rbp)
  401dae:	eb 13                	jmp    401dc3 <__sel4runtime_run_constructors+0x75>
  401db0:	8b 45 f8             	mov    -0x8(%rbp),%eax
  401db3:	48 98                	cltq   
  401db5:	48 8b 04 c5 d0 6f 41 	mov    0x416fd0(,%rax,8),%rax
  401dbc:	00 
  401dbd:	ff d0                	callq  *%rax
  401dbf:	83 45 f8 01          	addl   $0x1,-0x8(%rbp)
  401dc3:	8b 45 f8             	mov    -0x8(%rbp),%eax
  401dc6:	3b 45 f0             	cmp    -0x10(%rbp),%eax
  401dc9:	7c e5                	jl     401db0 <__sel4runtime_run_constructors+0x62>
  401dcb:	90                   	nop
  401dcc:	90                   	nop
  401dcd:	c9                   	leaveq 
  401dce:	c3                   	retq   

0000000000401dcf <__sel4runtime_run_destructors>:
  401dcf:	f3 0f 1e fa          	endbr64 
  401dd3:	55                   	push   %rbp
  401dd4:	48 89 e5             	mov    %rsp,%rbp
  401dd7:	48 83 ec 10          	sub    $0x10,%rsp
  401ddb:	b8 00 70 41 00       	mov    $0x417000,%eax
  401de0:	48 2d f8 6f 41 00    	sub    $0x416ff8,%rax
  401de6:	48 c1 f8 03          	sar    $0x3,%rax
  401dea:	89 45 f8             	mov    %eax,-0x8(%rbp)
  401ded:	8b 45 f8             	mov    -0x8(%rbp),%eax
  401df0:	83 e8 01             	sub    $0x1,%eax
  401df3:	89 45 fc             	mov    %eax,-0x4(%rbp)
  401df6:	eb 13                	jmp    401e0b <__sel4runtime_run_destructors+0x3c>
  401df8:	8b 45 fc             	mov    -0x4(%rbp),%eax
  401dfb:	48 98                	cltq   
  401dfd:	48 8b 04 c5 f8 6f 41 	mov    0x416ff8(,%rax,8),%rax
  401e04:	00 
  401e05:	ff d0                	callq  *%rax
  401e07:	83 6d fc 01          	subl   $0x1,-0x4(%rbp)
  401e0b:	83 7d fc 00          	cmpl   $0x0,-0x4(%rbp)
  401e0f:	79 e7                	jns    401df8 <__sel4runtime_run_destructors+0x29>
  401e11:	e8 88 f5 00 00       	callq  41139e <_fini>
  401e16:	90                   	nop
  401e17:	c9                   	leaveq 
  401e18:	c3                   	retq   

0000000000401e19 <__sel4runtime_memset>:
  401e19:	f3 0f 1e fa          	endbr64 
  401e1d:	55                   	push   %rbp
  401e1e:	48 89 e5             	mov    %rsp,%rbp
  401e21:	48 89 7d d8          	mov    %rdi,-0x28(%rbp)
  401e25:	89 75 d4             	mov    %esi,-0x2c(%rbp)
  401e28:	48 89 55 c8          	mov    %rdx,-0x38(%rbp)
  401e2c:	48 8b 45 d8          	mov    -0x28(%rbp),%rax
  401e30:	48 89 45 f8          	mov    %rax,-0x8(%rbp)
  401e34:	48 83 7d c8 00       	cmpq   $0x0,-0x38(%rbp)
  401e39:	75 09                	jne    401e44 <__sel4runtime_memset+0x2b>
  401e3b:	48 8b 45 d8          	mov    -0x28(%rbp),%rax
  401e3f:	e9 64 02 00 00       	jmpq   4020a8 <__sel4runtime_memset+0x28f>
  401e44:	48 8b 45 c8          	mov    -0x38(%rbp),%rax
  401e48:	48 8d 50 ff          	lea    -0x1(%rax),%rdx
  401e4c:	48 8b 45 f8          	mov    -0x8(%rbp),%rax
  401e50:	48 01 d0             	add    %rdx,%rax
  401e53:	8b 55 d4             	mov    -0x2c(%rbp),%edx
  401e56:	88 10                	mov    %dl,(%rax)
  401e58:	0f b6 00             	movzbl (%rax),%eax
  401e5b:	48 8b 55 f8          	mov    -0x8(%rbp),%rdx
  401e5f:	88 02                	mov    %al,(%rdx)
  401e61:	48 83 7d c8 02       	cmpq   $0x2,-0x38(%rbp)
  401e66:	77 09                	ja     401e71 <__sel4runtime_memset+0x58>
  401e68:	48 8b 45 d8          	mov    -0x28(%rbp),%rax
  401e6c:	e9 37 02 00 00       	jmpq   4020a8 <__sel4runtime_memset+0x28f>
  401e71:	48 8b 45 c8          	mov    -0x38(%rbp),%rax
  401e75:	48 8d 50 fe          	lea    -0x2(%rax),%rdx
  401e79:	48 8b 45 f8          	mov    -0x8(%rbp),%rax
  401e7d:	48 01 d0             	add    %rdx,%rax
  401e80:	8b 55 d4             	mov    -0x2c(%rbp),%edx
  401e83:	88 10                	mov    %dl,(%rax)
  401e85:	48 8b 55 f8          	mov    -0x8(%rbp),%rdx
  401e89:	48 83 c2 01          	add    $0x1,%rdx
  401e8d:	0f b6 00             	movzbl (%rax),%eax
  401e90:	88 02                	mov    %al,(%rdx)
  401e92:	48 8b 45 c8          	mov    -0x38(%rbp),%rax
  401e96:	48 8d 50 fd          	lea    -0x3(%rax),%rdx
  401e9a:	48 8b 45 f8          	mov    -0x8(%rbp),%rax
  401e9e:	48 01 d0             	add    %rdx,%rax
  401ea1:	8b 55 d4             	mov    -0x2c(%rbp),%edx
  401ea4:	88 10                	mov    %dl,(%rax)
  401ea6:	48 8b 55 f8          	mov    -0x8(%rbp),%rdx
  401eaa:	48 83 c2 02          	add    $0x2,%rdx
  401eae:	0f b6 00             	movzbl (%rax),%eax
  401eb1:	88 02                	mov    %al,(%rdx)
  401eb3:	48 83 7d c8 06       	cmpq   $0x6,-0x38(%rbp)
  401eb8:	77 09                	ja     401ec3 <__sel4runtime_memset+0xaa>
  401eba:	48 8b 45 d8          	mov    -0x28(%rbp),%rax
  401ebe:	e9 e5 01 00 00       	jmpq   4020a8 <__sel4runtime_memset+0x28f>
  401ec3:	48 8b 45 c8          	mov    -0x38(%rbp),%rax
  401ec7:	48 8d 50 fc          	lea    -0x4(%rax),%rdx
  401ecb:	48 8b 45 f8          	mov    -0x8(%rbp),%rax
  401ecf:	48 01 d0             	add    %rdx,%rax
  401ed2:	8b 55 d4             	mov    -0x2c(%rbp),%edx
  401ed5:	88 10                	mov    %dl,(%rax)
  401ed7:	48 8b 55 f8          	mov    -0x8(%rbp),%rdx
  401edb:	48 83 c2 03          	add    $0x3,%rdx
  401edf:	0f b6 00             	movzbl (%rax),%eax
  401ee2:	88 02                	mov    %al,(%rdx)
  401ee4:	48 83 7d c8 08       	cmpq   $0x8,-0x38(%rbp)
  401ee9:	77 09                	ja     401ef4 <__sel4runtime_memset+0xdb>
  401eeb:	48 8b 45 d8          	mov    -0x28(%rbp),%rax
  401eef:	e9 b4 01 00 00       	jmpq   4020a8 <__sel4runtime_memset+0x28f>
  401ef4:	48 8b 45 f8          	mov    -0x8(%rbp),%rax
  401ef8:	48 f7 d8             	neg    %rax
  401efb:	83 e0 03             	and    $0x3,%eax
  401efe:	48 89 45 f0          	mov    %rax,-0x10(%rbp)
  401f02:	48 8b 45 f0          	mov    -0x10(%rbp),%rax
  401f06:	48 01 45 f8          	add    %rax,-0x8(%rbp)
  401f0a:	48 8b 45 f0          	mov    -0x10(%rbp),%rax
  401f0e:	48 29 45 c8          	sub    %rax,-0x38(%rbp)
  401f12:	48 83 65 c8 fc       	andq   $0xfffffffffffffffc,-0x38(%rbp)
  401f17:	8b 45 d4             	mov    -0x2c(%rbp),%eax
  401f1a:	0f b6 c0             	movzbl %al,%eax
  401f1d:	69 c0 01 01 01 01    	imul   $0x1010101,%eax,%eax
  401f23:	89 45 ec             	mov    %eax,-0x14(%rbp)
  401f26:	48 8b 45 f8          	mov    -0x8(%rbp),%rax
  401f2a:	8b 55 ec             	mov    -0x14(%rbp),%edx
  401f2d:	89 10                	mov    %edx,(%rax)
  401f2f:	48 8b 45 c8          	mov    -0x38(%rbp),%rax
  401f33:	48 8d 50 fc          	lea    -0x4(%rax),%rdx
  401f37:	48 8b 45 f8          	mov    -0x8(%rbp),%rax
  401f3b:	48 01 d0             	add    %rdx,%rax
  401f3e:	8b 55 ec             	mov    -0x14(%rbp),%edx
  401f41:	89 10                	mov    %edx,(%rax)
  401f43:	48 83 7d c8 08       	cmpq   $0x8,-0x38(%rbp)
  401f48:	77 09                	ja     401f53 <__sel4runtime_memset+0x13a>
  401f4a:	48 8b 45 d8          	mov    -0x28(%rbp),%rax
  401f4e:	e9 55 01 00 00       	jmpq   4020a8 <__sel4runtime_memset+0x28f>
  401f53:	48 8b 45 f8          	mov    -0x8(%rbp),%rax
  401f57:	48 83 c0 04          	add    $0x4,%rax
  401f5b:	8b 55 ec             	mov    -0x14(%rbp),%edx
  401f5e:	89 10                	mov    %edx,(%rax)
  401f60:	48 8b 45 f8          	mov    -0x8(%rbp),%rax
  401f64:	48 83 c0 08          	add    $0x8,%rax
  401f68:	8b 55 ec             	mov    -0x14(%rbp),%edx
  401f6b:	89 10                	mov    %edx,(%rax)
  401f6d:	48 8b 45 c8          	mov    -0x38(%rbp),%rax
  401f71:	48 8d 50 f4          	lea    -0xc(%rax),%rdx
  401f75:	48 8b 45 f8          	mov    -0x8(%rbp),%rax
  401f79:	48 01 d0             	add    %rdx,%rax
  401f7c:	8b 55 ec             	mov    -0x14(%rbp),%edx
  401f7f:	89 10                	mov    %edx,(%rax)
  401f81:	48 8b 45 c8          	mov    -0x38(%rbp),%rax
  401f85:	48 8d 50 f8          	lea    -0x8(%rax),%rdx
  401f89:	48 8b 45 f8          	mov    -0x8(%rbp),%rax
  401f8d:	48 01 d0             	add    %rdx,%rax
  401f90:	8b 55 ec             	mov    -0x14(%rbp),%edx
  401f93:	89 10                	mov    %edx,(%rax)
  401f95:	48 83 7d c8 18       	cmpq   $0x18,-0x38(%rbp)
  401f9a:	77 09                	ja     401fa5 <__sel4runtime_memset+0x18c>
  401f9c:	48 8b 45 d8          	mov    -0x28(%rbp),%rax
  401fa0:	e9 03 01 00 00       	jmpq   4020a8 <__sel4runtime_memset+0x28f>
  401fa5:	48 8b 45 f8          	mov    -0x8(%rbp),%rax
  401fa9:	48 83 c0 0c          	add    $0xc,%rax
  401fad:	8b 55 ec             	mov    -0x14(%rbp),%edx
  401fb0:	89 10                	mov    %edx,(%rax)
  401fb2:	48 8b 45 f8          	mov    -0x8(%rbp),%rax
  401fb6:	48 83 c0 10          	add    $0x10,%rax
  401fba:	8b 55 ec             	mov    -0x14(%rbp),%edx
  401fbd:	89 10                	mov    %edx,(%rax)
  401fbf:	48 8b 45 f8          	mov    -0x8(%rbp),%rax
  401fc3:	48 83 c0 14          	add    $0x14,%rax
  401fc7:	8b 55 ec             	mov    -0x14(%rbp),%edx
  401fca:	89 10                	mov    %edx,(%rax)
  401fcc:	48 8b 45 f8          	mov    -0x8(%rbp),%rax
  401fd0:	48 83 c0 18          	add    $0x18,%rax
  401fd4:	8b 55 ec             	mov    -0x14(%rbp),%edx
  401fd7:	89 10                	mov    %edx,(%rax)
  401fd9:	48 8b 45 c8          	mov    -0x38(%rbp),%rax
  401fdd:	48 8d 50 e4          	lea    -0x1c(%rax),%rdx
  401fe1:	48 8b 45 f8          	mov    -0x8(%rbp),%rax
  401fe5:	48 01 d0             	add    %rdx,%rax
  401fe8:	8b 55 ec             	mov    -0x14(%rbp),%edx
  401feb:	89 10                	mov    %edx,(%rax)
  401fed:	48 8b 45 c8          	mov    -0x38(%rbp),%rax
  401ff1:	48 8d 50 e8          	lea    -0x18(%rax),%rdx
  401ff5:	48 8b 45 f8          	mov    -0x8(%rbp),%rax
  401ff9:	48 01 d0             	add    %rdx,%rax
  401ffc:	8b 55 ec             	mov    -0x14(%rbp),%edx
  401fff:	89 10                	mov    %edx,(%rax)
  402001:	48 8b 45 c8          	mov    -0x38(%rbp),%rax
  402005:	48 8d 50 ec          	lea    -0x14(%rax),%rdx
  402009:	48 8b 45 f8          	mov    -0x8(%rbp),%rax
  40200d:	48 01 d0             	add    %rdx,%rax
  402010:	8b 55 ec             	mov    -0x14(%rbp),%edx
  402013:	89 10                	mov    %edx,(%rax)
  402015:	48 8b 45 c8          	mov    -0x38(%rbp),%rax
  402019:	48 8d 50 f0          	lea    -0x10(%rax),%rdx
  40201d:	48 8b 45 f8          	mov    -0x8(%rbp),%rax
  402021:	48 01 d0             	add    %rdx,%rax
  402024:	8b 55 ec             	mov    -0x14(%rbp),%edx
  402027:	89 10                	mov    %edx,(%rax)
  402029:	48 8b 45 f8          	mov    -0x8(%rbp),%rax
  40202d:	83 e0 04             	and    $0x4,%eax
  402030:	48 83 c0 18          	add    $0x18,%rax
  402034:	48 89 45 f0          	mov    %rax,-0x10(%rbp)
  402038:	48 8b 45 f0          	mov    -0x10(%rbp),%rax
  40203c:	48 01 45 f8          	add    %rax,-0x8(%rbp)
  402040:	48 8b 45 f0          	mov    -0x10(%rbp),%rax
  402044:	48 29 45 c8          	sub    %rax,-0x38(%rbp)
  402048:	8b 45 ec             	mov    -0x14(%rbp),%eax
  40204b:	8b 55 ec             	mov    -0x14(%rbp),%edx
  40204e:	48 c1 e2 20          	shl    $0x20,%rdx
  402052:	48 09 d0             	or     %rdx,%rax
  402055:	48 89 45 e0          	mov    %rax,-0x20(%rbp)
  402059:	eb 42                	jmp    40209d <__sel4runtime_memset+0x284>
  40205b:	48 8b 45 f8          	mov    -0x8(%rbp),%rax
  40205f:	48 8b 55 e0          	mov    -0x20(%rbp),%rdx
  402063:	48 89 10             	mov    %rdx,(%rax)
  402066:	48 8b 45 f8          	mov    -0x8(%rbp),%rax
  40206a:	48 83 c0 08          	add    $0x8,%rax
  40206e:	48 8b 55 e0          	mov    -0x20(%rbp),%rdx
  402072:	48 89 10             	mov    %rdx,(%rax)
  402075:	48 8b 45 f8          	mov    -0x8(%rbp),%rax
  402079:	48 83 c0 10          	add    $0x10,%rax
  40207d:	48 8b 55 e0          	mov    -0x20(%rbp),%rdx
  402081:	48 89 10             	mov    %rdx,(%rax)
  402084:	48 8b 45 f8          	mov    -0x8(%rbp),%rax
  402088:	48 83 c0 18          	add    $0x18,%rax
  40208c:	48 8b 55 e0          	mov    -0x20(%rbp),%rdx
  402090:	48 89 10             	mov    %rdx,(%rax)
  402093:	48 83 6d c8 20       	subq   $0x20,-0x38(%rbp)
  402098:	48 83 45 f8 20       	addq   $0x20,-0x8(%rbp)
  40209d:	48 83 7d c8 1f       	cmpq   $0x1f,-0x38(%rbp)
  4020a2:	77 b7                	ja     40205b <__sel4runtime_memset+0x242>
  4020a4:	48 8b 45 d8          	mov    -0x28(%rbp),%rax
  4020a8:	5d                   	pop    %rbp
  4020a9:	c3                   	retq   

00000000004020aa <__sel4runtime_memcpy>:
  4020aa:	f3 0f 1e fa          	endbr64 
  4020ae:	55                   	push   %rbp
  4020af:	48 89 e5             	mov    %rsp,%rbp
  4020b2:	48 89 7d d8          	mov    %rdi,-0x28(%rbp)
  4020b6:	48 89 75 d0          	mov    %rsi,-0x30(%rbp)
  4020ba:	48 89 55 c8          	mov    %rdx,-0x38(%rbp)
  4020be:	48 8b 45 d8          	mov    -0x28(%rbp),%rax
  4020c2:	48 89 45 f8          	mov    %rax,-0x8(%rbp)
  4020c6:	48 8b 45 d0          	mov    -0x30(%rbp),%rax
  4020ca:	48 89 45 f0          	mov    %rax,-0x10(%rbp)
  4020ce:	eb 22                	jmp    4020f2 <__sel4runtime_memcpy+0x48>
  4020d0:	48 8b 55 f0          	mov    -0x10(%rbp),%rdx
  4020d4:	48 8d 42 01          	lea    0x1(%rdx),%rax
  4020d8:	48 89 45 f0          	mov    %rax,-0x10(%rbp)
  4020dc:	48 8b 45 f8          	mov    -0x8(%rbp),%rax
  4020e0:	48 8d 48 01          	lea    0x1(%rax),%rcx
  4020e4:	48 89 4d f8          	mov    %rcx,-0x8(%rbp)
  4020e8:	0f b6 12             	movzbl (%rdx),%edx
  4020eb:	88 10                	mov    %dl,(%rax)
  4020ed:	48 83 6d c8 01       	subq   $0x1,-0x38(%rbp)
  4020f2:	48 8b 45 f0          	mov    -0x10(%rbp),%rax
  4020f6:	83 e0 03             	and    $0x3,%eax
  4020f9:	48 85 c0             	test   %rax,%rax
  4020fc:	74 07                	je     402105 <__sel4runtime_memcpy+0x5b>
  4020fe:	48 83 7d c8 00       	cmpq   $0x0,-0x38(%rbp)
  402103:	75 cb                	jne    4020d0 <__sel4runtime_memcpy+0x26>
  402105:	48 8b 45 f8          	mov    -0x8(%rbp),%rax
  402109:	83 e0 03             	and    $0x3,%eax
  40210c:	48 85 c0             	test   %rax,%rax
  40210f:	0f 85 20 01 00 00    	jne    402235 <__sel4runtime_memcpy+0x18b>
  402115:	eb 57                	jmp    40216e <__sel4runtime_memcpy+0xc4>
  402117:	48 8b 45 f0          	mov    -0x10(%rbp),%rax
  40211b:	8b 10                	mov    (%rax),%edx
  40211d:	48 8b 45 f8          	mov    -0x8(%rbp),%rax
  402121:	89 10                	mov    %edx,(%rax)
  402123:	48 8b 45 f0          	mov    -0x10(%rbp),%rax
  402127:	48 8d 50 04          	lea    0x4(%rax),%rdx
  40212b:	48 8b 45 f8          	mov    -0x8(%rbp),%rax
  40212f:	48 83 c0 04          	add    $0x4,%rax
  402133:	8b 12                	mov    (%rdx),%edx
  402135:	89 10                	mov    %edx,(%rax)
  402137:	48 8b 45 f0          	mov    -0x10(%rbp),%rax
  40213b:	48 8d 50 08          	lea    0x8(%rax),%rdx
  40213f:	48 8b 45 f8          	mov    -0x8(%rbp),%rax
  402143:	48 83 c0 08          	add    $0x8,%rax
  402147:	8b 12                	mov    (%rdx),%edx
  402149:	89 10                	mov    %edx,(%rax)
  40214b:	48 8b 45 f0          	mov    -0x10(%rbp),%rax
  40214f:	48 8d 50 0c          	lea    0xc(%rax),%rdx
  402153:	48 8b 45 f8          	mov    -0x8(%rbp),%rax
  402157:	48 83 c0 0c          	add    $0xc,%rax
  40215b:	8b 12                	mov    (%rdx),%edx
  40215d:	89 10                	mov    %edx,(%rax)
  40215f:	48 83 45 f0 10       	addq   $0x10,-0x10(%rbp)
  402164:	48 83 45 f8 10       	addq   $0x10,-0x8(%rbp)
  402169:	48 83 6d c8 10       	subq   $0x10,-0x38(%rbp)
  40216e:	48 83 7d c8 0f       	cmpq   $0xf,-0x38(%rbp)
  402173:	77 a2                	ja     402117 <__sel4runtime_memcpy+0x6d>
  402175:	48 8b 45 c8          	mov    -0x38(%rbp),%rax
  402179:	83 e0 08             	and    $0x8,%eax
  40217c:	48 85 c0             	test   %rax,%rax
  40217f:	74 2a                	je     4021ab <__sel4runtime_memcpy+0x101>
  402181:	48 8b 45 f0          	mov    -0x10(%rbp),%rax
  402185:	8b 10                	mov    (%rax),%edx
  402187:	48 8b 45 f8          	mov    -0x8(%rbp),%rax
  40218b:	89 10                	mov    %edx,(%rax)
  40218d:	48 8b 45 f0          	mov    -0x10(%rbp),%rax
  402191:	48 8d 50 04          	lea    0x4(%rax),%rdx
  402195:	48 8b 45 f8          	mov    -0x8(%rbp),%rax
  402199:	48 83 c0 04          	add    $0x4,%rax
  40219d:	8b 12                	mov    (%rdx),%edx
  40219f:	89 10                	mov    %edx,(%rax)
  4021a1:	48 83 45 f8 08       	addq   $0x8,-0x8(%rbp)
  4021a6:	48 83 45 f0 08       	addq   $0x8,-0x10(%rbp)
  4021ab:	48 8b 45 c8          	mov    -0x38(%rbp),%rax
  4021af:	83 e0 04             	and    $0x4,%eax
  4021b2:	48 85 c0             	test   %rax,%rax
  4021b5:	74 16                	je     4021cd <__sel4runtime_memcpy+0x123>
  4021b7:	48 8b 45 f0          	mov    -0x10(%rbp),%rax
  4021bb:	8b 10                	mov    (%rax),%edx
  4021bd:	48 8b 45 f8          	mov    -0x8(%rbp),%rax
  4021c1:	89 10                	mov    %edx,(%rax)
  4021c3:	48 83 45 f8 04       	addq   $0x4,-0x8(%rbp)
  4021c8:	48 83 45 f0 04       	addq   $0x4,-0x10(%rbp)
  4021cd:	48 8b 45 c8          	mov    -0x38(%rbp),%rax
  4021d1:	83 e0 02             	and    $0x2,%eax
  4021d4:	48 85 c0             	test   %rax,%rax
  4021d7:	74 3a                	je     402213 <__sel4runtime_memcpy+0x169>
  4021d9:	48 8b 55 f0          	mov    -0x10(%rbp),%rdx
  4021dd:	48 8d 42 01          	lea    0x1(%rdx),%rax
  4021e1:	48 89 45 f0          	mov    %rax,-0x10(%rbp)
  4021e5:	48 8b 45 f8          	mov    -0x8(%rbp),%rax
  4021e9:	48 8d 48 01          	lea    0x1(%rax),%rcx
  4021ed:	48 89 4d f8          	mov    %rcx,-0x8(%rbp)
  4021f1:	0f b6 12             	movzbl (%rdx),%edx
  4021f4:	88 10                	mov    %dl,(%rax)
  4021f6:	48 8b 55 f0          	mov    -0x10(%rbp),%rdx
  4021fa:	48 8d 42 01          	lea    0x1(%rdx),%rax
  4021fe:	48 89 45 f0          	mov    %rax,-0x10(%rbp)
  402202:	48 8b 45 f8          	mov    -0x8(%rbp),%rax
  402206:	48 8d 48 01          	lea    0x1(%rax),%rcx
  40220a:	48 89 4d f8          	mov    %rcx,-0x8(%rbp)
  40220e:	0f b6 12             	movzbl (%rdx),%edx
  402211:	88 10                	mov    %dl,(%rax)
  402213:	48 8b 45 c8          	mov    -0x38(%rbp),%rax
  402217:	83 e0 01             	and    $0x1,%eax
  40221a:	48 85 c0             	test   %rax,%rax
  40221d:	74 0d                	je     40222c <__sel4runtime_memcpy+0x182>
  40221f:	48 8b 45 f0          	mov    -0x10(%rbp),%rax
  402223:	0f b6 00             	movzbl (%rax),%eax
  402226:	48 8b 55 f8          	mov    -0x8(%rbp),%rdx
  40222a:	88 02                	mov    %al,(%rdx)
  40222c:	48 8b 45 d8          	mov    -0x28(%rbp),%rax
  402230:	e9 12 07 00 00       	jmpq   402947 <__sel4runtime_memcpy+0x89d>
  402235:	48 83 7d c8 1f       	cmpq   $0x1f,-0x38(%rbp)
  40223a:	0f 86 4b 03 00 00    	jbe    40258b <__sel4runtime_memcpy+0x4e1>
  402240:	48 8b 45 f8          	mov    -0x8(%rbp),%rax
  402244:	83 e0 03             	and    $0x3,%eax
  402247:	48 83 f8 03          	cmp    $0x3,%rax
  40224b:	0f 84 50 02 00 00    	je     4024a1 <__sel4runtime_memcpy+0x3f7>
  402251:	48 83 f8 03          	cmp    $0x3,%rax
  402255:	0f 87 31 03 00 00    	ja     40258c <__sel4runtime_memcpy+0x4e2>
  40225b:	48 83 f8 01          	cmp    $0x1,%rax
  40225f:	74 0f                	je     402270 <__sel4runtime_memcpy+0x1c6>
  402261:	48 83 f8 02          	cmp    $0x2,%rax
  402265:	0f 84 2c 01 00 00    	je     402397 <__sel4runtime_memcpy+0x2ed>
  40226b:	e9 1c 03 00 00       	jmpq   40258c <__sel4runtime_memcpy+0x4e2>
  402270:	48 8b 45 f0          	mov    -0x10(%rbp),%rax
  402274:	8b 00                	mov    (%rax),%eax
  402276:	89 45 ec             	mov    %eax,-0x14(%rbp)
  402279:	48 8b 55 f0          	mov    -0x10(%rbp),%rdx
  40227d:	48 8d 42 01          	lea    0x1(%rdx),%rax
  402281:	48 89 45 f0          	mov    %rax,-0x10(%rbp)
  402285:	48 8b 45 f8          	mov    -0x8(%rbp),%rax
  402289:	48 8d 48 01          	lea    0x1(%rax),%rcx
  40228d:	48 89 4d f8          	mov    %rcx,-0x8(%rbp)
  402291:	0f b6 12             	movzbl (%rdx),%edx
  402294:	88 10                	mov    %dl,(%rax)
  402296:	48 8b 55 f0          	mov    -0x10(%rbp),%rdx
  40229a:	48 8d 42 01          	lea    0x1(%rdx),%rax
  40229e:	48 89 45 f0          	mov    %rax,-0x10(%rbp)
  4022a2:	48 8b 45 f8          	mov    -0x8(%rbp),%rax
  4022a6:	48 8d 48 01          	lea    0x1(%rax),%rcx
  4022aa:	48 89 4d f8          	mov    %rcx,-0x8(%rbp)
  4022ae:	0f b6 12             	movzbl (%rdx),%edx
  4022b1:	88 10                	mov    %dl,(%rax)
  4022b3:	48 8b 55 f0          	mov    -0x10(%rbp),%rdx
  4022b7:	48 8d 42 01          	lea    0x1(%rdx),%rax
  4022bb:	48 89 45 f0          	mov    %rax,-0x10(%rbp)
  4022bf:	48 8b 45 f8          	mov    -0x8(%rbp),%rax
  4022c3:	48 8d 48 01          	lea    0x1(%rax),%rcx
  4022c7:	48 89 4d f8          	mov    %rcx,-0x8(%rbp)
  4022cb:	0f b6 12             	movzbl (%rdx),%edx
  4022ce:	88 10                	mov    %dl,(%rax)
  4022d0:	48 83 6d c8 03       	subq   $0x3,-0x38(%rbp)
  4022d5:	e9 ad 00 00 00       	jmpq   402387 <__sel4runtime_memcpy+0x2dd>
  4022da:	48 8b 45 f0          	mov    -0x10(%rbp),%rax
  4022de:	48 83 c0 01          	add    $0x1,%rax
  4022e2:	8b 00                	mov    (%rax),%eax
  4022e4:	89 45 e8             	mov    %eax,-0x18(%rbp)
  4022e7:	8b 45 ec             	mov    -0x14(%rbp),%eax
  4022ea:	c1 e8 18             	shr    $0x18,%eax
  4022ed:	89 c2                	mov    %eax,%edx
  4022ef:	8b 45 e8             	mov    -0x18(%rbp),%eax
  4022f2:	c1 e0 08             	shl    $0x8,%eax
  4022f5:	09 c2                	or     %eax,%edx
  4022f7:	48 8b 45 f8          	mov    -0x8(%rbp),%rax
  4022fb:	89 10                	mov    %edx,(%rax)
  4022fd:	48 8b 45 f0          	mov    -0x10(%rbp),%rax
  402301:	48 83 c0 05          	add    $0x5,%rax
  402305:	8b 00                	mov    (%rax),%eax
  402307:	89 45 ec             	mov    %eax,-0x14(%rbp)
  40230a:	8b 45 e8             	mov    -0x18(%rbp),%eax
  40230d:	c1 e8 18             	shr    $0x18,%eax
  402310:	89 c1                	mov    %eax,%ecx
  402312:	8b 45 ec             	mov    -0x14(%rbp),%eax
  402315:	c1 e0 08             	shl    $0x8,%eax
  402318:	89 c2                	mov    %eax,%edx
  40231a:	48 8b 45 f8          	mov    -0x8(%rbp),%rax
  40231e:	48 83 c0 04          	add    $0x4,%rax
  402322:	09 ca                	or     %ecx,%edx
  402324:	89 10                	mov    %edx,(%rax)
  402326:	48 8b 45 f0          	mov    -0x10(%rbp),%rax
  40232a:	48 83 c0 09          	add    $0x9,%rax
  40232e:	8b 00                	mov    (%rax),%eax
  402330:	89 45 e8             	mov    %eax,-0x18(%rbp)
  402333:	8b 45 ec             	mov    -0x14(%rbp),%eax
  402336:	c1 e8 18             	shr    $0x18,%eax
  402339:	89 c1                	mov    %eax,%ecx
  40233b:	8b 45 e8             	mov    -0x18(%rbp),%eax
  40233e:	c1 e0 08             	shl    $0x8,%eax
  402341:	89 c2                	mov    %eax,%edx
  402343:	48 8b 45 f8          	mov    -0x8(%rbp),%rax
  402347:	48 83 c0 08          	add    $0x8,%rax
  40234b:	09 ca                	or     %ecx,%edx
  40234d:	89 10                	mov    %edx,(%rax)
  40234f:	48 8b 45 f0          	mov    -0x10(%rbp),%rax
  402353:	48 83 c0 0d          	add    $0xd,%rax
  402357:	8b 00                	mov    (%rax),%eax
  402359:	89 45 ec             	mov    %eax,-0x14(%rbp)
  40235c:	8b 45 e8             	mov    -0x18(%rbp),%eax
  40235f:	c1 e8 18             	shr    $0x18,%eax
  402362:	89 c1                	mov    %eax,%ecx
  402364:	8b 45 ec             	mov    -0x14(%rbp),%eax
  402367:	c1 e0 08             	shl    $0x8,%eax
  40236a:	89 c2                	mov    %eax,%edx
  40236c:	48 8b 45 f8          	mov    -0x8(%rbp),%rax
  402370:	48 83 c0 0c          	add    $0xc,%rax
  402374:	09 ca                	or     %ecx,%edx
  402376:	89 10                	mov    %edx,(%rax)
  402378:	48 83 45 f0 10       	addq   $0x10,-0x10(%rbp)
  40237d:	48 83 45 f8 10       	addq   $0x10,-0x8(%rbp)
  402382:	48 83 6d c8 10       	subq   $0x10,-0x38(%rbp)
  402387:	48 83 7d c8 10       	cmpq   $0x10,-0x38(%rbp)
  40238c:	0f 87 48 ff ff ff    	ja     4022da <__sel4runtime_memcpy+0x230>
  402392:	e9 f5 01 00 00       	jmpq   40258c <__sel4runtime_memcpy+0x4e2>
  402397:	48 8b 45 f0          	mov    -0x10(%rbp),%rax
  40239b:	8b 00                	mov    (%rax),%eax
  40239d:	89 45 ec             	mov    %eax,-0x14(%rbp)
  4023a0:	48 8b 55 f0          	mov    -0x10(%rbp),%rdx
  4023a4:	48 8d 42 01          	lea    0x1(%rdx),%rax
  4023a8:	48 89 45 f0          	mov    %rax,-0x10(%rbp)
  4023ac:	48 8b 45 f8          	mov    -0x8(%rbp),%rax
  4023b0:	48 8d 48 01          	lea    0x1(%rax),%rcx
  4023b4:	48 89 4d f8          	mov    %rcx,-0x8(%rbp)
  4023b8:	0f b6 12             	movzbl (%rdx),%edx
  4023bb:	88 10                	mov    %dl,(%rax)
  4023bd:	48 8b 55 f0          	mov    -0x10(%rbp),%rdx
  4023c1:	48 8d 42 01          	lea    0x1(%rdx),%rax
  4023c5:	48 89 45 f0          	mov    %rax,-0x10(%rbp)
  4023c9:	48 8b 45 f8          	mov    -0x8(%rbp),%rax
  4023cd:	48 8d 48 01          	lea    0x1(%rax),%rcx
  4023d1:	48 89 4d f8          	mov    %rcx,-0x8(%rbp)
  4023d5:	0f b6 12             	movzbl (%rdx),%edx
  4023d8:	88 10                	mov    %dl,(%rax)
  4023da:	48 83 6d c8 02       	subq   $0x2,-0x38(%rbp)
  4023df:	e9 ad 00 00 00       	jmpq   402491 <__sel4runtime_memcpy+0x3e7>
  4023e4:	48 8b 45 f0          	mov    -0x10(%rbp),%rax
  4023e8:	48 83 c0 02          	add    $0x2,%rax
  4023ec:	8b 00                	mov    (%rax),%eax
  4023ee:	89 45 e8             	mov    %eax,-0x18(%rbp)
  4023f1:	8b 45 ec             	mov    -0x14(%rbp),%eax
  4023f4:	c1 e8 10             	shr    $0x10,%eax
  4023f7:	89 c2                	mov    %eax,%edx
  4023f9:	8b 45 e8             	mov    -0x18(%rbp),%eax
  4023fc:	c1 e0 10             	shl    $0x10,%eax
  4023ff:	09 c2                	or     %eax,%edx
  402401:	48 8b 45 f8          	mov    -0x8(%rbp),%rax
  402405:	89 10                	mov    %edx,(%rax)
  402407:	48 8b 45 f0          	mov    -0x10(%rbp),%rax
  40240b:	48 83 c0 06          	add    $0x6,%rax
  40240f:	8b 00                	mov    (%rax),%eax
  402411:	89 45 ec             	mov    %eax,-0x14(%rbp)
  402414:	8b 45 e8             	mov    -0x18(%rbp),%eax
  402417:	c1 e8 10             	shr    $0x10,%eax
  40241a:	89 c1                	mov    %eax,%ecx
  40241c:	8b 45 ec             	mov    -0x14(%rbp),%eax
  40241f:	c1 e0 10             	shl    $0x10,%eax
  402422:	89 c2                	mov    %eax,%edx
  402424:	48 8b 45 f8          	mov    -0x8(%rbp),%rax
  402428:	48 83 c0 04          	add    $0x4,%rax
  40242c:	09 ca                	or     %ecx,%edx
  40242e:	89 10                	mov    %edx,(%rax)
  402430:	48 8b 45 f0          	mov    -0x10(%rbp),%rax
  402434:	48 83 c0 0a          	add    $0xa,%rax
  402438:	8b 00                	mov    (%rax),%eax
  40243a:	89 45 e8             	mov    %eax,-0x18(%rbp)
  40243d:	8b 45 ec             	mov    -0x14(%rbp),%eax
  402440:	c1 e8 10             	shr    $0x10,%eax
  402443:	89 c1                	mov    %eax,%ecx
  402445:	8b 45 e8             	mov    -0x18(%rbp),%eax
  402448:	c1 e0 10             	shl    $0x10,%eax
  40244b:	89 c2                	mov    %eax,%edx
  40244d:	48 8b 45 f8          	mov    -0x8(%rbp),%rax
  402451:	48 83 c0 08          	add    $0x8,%rax
  402455:	09 ca                	or     %ecx,%edx
  402457:	89 10                	mov    %edx,(%rax)
  402459:	48 8b 45 f0          	mov    -0x10(%rbp),%rax
  40245d:	48 83 c0 0e          	add    $0xe,%rax
  402461:	8b 00                	mov    (%rax),%eax
  402463:	89 45 ec             	mov    %eax,-0x14(%rbp)
  402466:	8b 45 e8             	mov    -0x18(%rbp),%eax
  402469:	c1 e8 10             	shr    $0x10,%eax
  40246c:	89 c1                	mov    %eax,%ecx
  40246e:	8b 45 ec             	mov    -0x14(%rbp),%eax
  402471:	c1 e0 10             	shl    $0x10,%eax
  402474:	89 c2                	mov    %eax,%edx
  402476:	48 8b 45 f8          	mov    -0x8(%rbp),%rax
  40247a:	48 83 c0 0c          	add    $0xc,%rax
  40247e:	09 ca                	or     %ecx,%edx
  402480:	89 10                	mov    %edx,(%rax)
  402482:	48 83 45 f0 10       	addq   $0x10,-0x10(%rbp)
  402487:	48 83 45 f8 10       	addq   $0x10,-0x8(%rbp)
  40248c:	48 83 6d c8 10       	subq   $0x10,-0x38(%rbp)
  402491:	48 83 7d c8 11       	cmpq   $0x11,-0x38(%rbp)
  402496:	0f 87 48 ff ff ff    	ja     4023e4 <__sel4runtime_memcpy+0x33a>
  40249c:	e9 eb 00 00 00       	jmpq   40258c <__sel4runtime_memcpy+0x4e2>
  4024a1:	48 8b 45 f0          	mov    -0x10(%rbp),%rax
  4024a5:	8b 00                	mov    (%rax),%eax
  4024a7:	89 45 ec             	mov    %eax,-0x14(%rbp)
  4024aa:	48 8b 55 f0          	mov    -0x10(%rbp),%rdx
  4024ae:	48 8d 42 01          	lea    0x1(%rdx),%rax
  4024b2:	48 89 45 f0          	mov    %rax,-0x10(%rbp)
  4024b6:	48 8b 45 f8          	mov    -0x8(%rbp),%rax
  4024ba:	48 8d 48 01          	lea    0x1(%rax),%rcx
  4024be:	48 89 4d f8          	mov    %rcx,-0x8(%rbp)
  4024c2:	0f b6 12             	movzbl (%rdx),%edx
  4024c5:	88 10                	mov    %dl,(%rax)
  4024c7:	48 83 6d c8 01       	subq   $0x1,-0x38(%rbp)
  4024cc:	e9 ad 00 00 00       	jmpq   40257e <__sel4runtime_memcpy+0x4d4>
  4024d1:	48 8b 45 f0          	mov    -0x10(%rbp),%rax
  4024d5:	48 83 c0 03          	add    $0x3,%rax
  4024d9:	8b 00                	mov    (%rax),%eax
  4024db:	89 45 e8             	mov    %eax,-0x18(%rbp)
  4024de:	8b 45 ec             	mov    -0x14(%rbp),%eax
  4024e1:	c1 e8 08             	shr    $0x8,%eax
  4024e4:	89 c2                	mov    %eax,%edx
  4024e6:	8b 45 e8             	mov    -0x18(%rbp),%eax
  4024e9:	c1 e0 18             	shl    $0x18,%eax
  4024ec:	09 c2                	or     %eax,%edx
  4024ee:	48 8b 45 f8          	mov    -0x8(%rbp),%rax
  4024f2:	89 10                	mov    %edx,(%rax)
  4024f4:	48 8b 45 f0          	mov    -0x10(%rbp),%rax
  4024f8:	48 83 c0 07          	add    $0x7,%rax
  4024fc:	8b 00                	mov    (%rax),%eax
  4024fe:	89 45 ec             	mov    %eax,-0x14(%rbp)
  402501:	8b 45 e8             	mov    -0x18(%rbp),%eax
  402504:	c1 e8 08             	shr    $0x8,%eax
  402507:	89 c1                	mov    %eax,%ecx
  402509:	8b 45 ec             	mov    -0x14(%rbp),%eax
  40250c:	c1 e0 18             	shl    $0x18,%eax
  40250f:	89 c2                	mov    %eax,%edx
  402511:	48 8b 45 f8          	mov    -0x8(%rbp),%rax
  402515:	48 83 c0 04          	add    $0x4,%rax
  402519:	09 ca                	or     %ecx,%edx
  40251b:	89 10                	mov    %edx,(%rax)
  40251d:	48 8b 45 f0          	mov    -0x10(%rbp),%rax
  402521:	48 83 c0 0b          	add    $0xb,%rax
  402525:	8b 00                	mov    (%rax),%eax
  402527:	89 45 e8             	mov    %eax,-0x18(%rbp)
  40252a:	8b 45 ec             	mov    -0x14(%rbp),%eax
  40252d:	c1 e8 08             	shr    $0x8,%eax
  402530:	89 c1                	mov    %eax,%ecx
  402532:	8b 45 e8             	mov    -0x18(%rbp),%eax
  402535:	c1 e0 18             	shl    $0x18,%eax
  402538:	89 c2                	mov    %eax,%edx
  40253a:	48 8b 45 f8          	mov    -0x8(%rbp),%rax
  40253e:	48 83 c0 08          	add    $0x8,%rax
  402542:	09 ca                	or     %ecx,%edx
  402544:	89 10                	mov    %edx,(%rax)
  402546:	48 8b 45 f0          	mov    -0x10(%rbp),%rax
  40254a:	48 83 c0 0f          	add    $0xf,%rax
  40254e:	8b 00                	mov    (%rax),%eax
  402550:	89 45 ec             	mov    %eax,-0x14(%rbp)
  402553:	8b 45 e8             	mov    -0x18(%rbp),%eax
  402556:	c1 e8 08             	shr    $0x8,%eax
  402559:	89 c1                	mov    %eax,%ecx
  40255b:	8b 45 ec             	mov    -0x14(%rbp),%eax
  40255e:	c1 e0 18             	shl    $0x18,%eax
  402561:	89 c2                	mov    %eax,%edx
  402563:	48 8b 45 f8          	mov    -0x8(%rbp),%rax
  402567:	48 83 c0 0c          	add    $0xc,%rax
  40256b:	09 ca                	or     %ecx,%edx
  40256d:	89 10                	mov    %edx,(%rax)
  40256f:	48 83 45 f0 10       	addq   $0x10,-0x10(%rbp)
  402574:	48 83 45 f8 10       	addq   $0x10,-0x8(%rbp)
  402579:	48 83 6d c8 10       	subq   $0x10,-0x38(%rbp)
  40257e:	48 83 7d c8 12       	cmpq   $0x12,-0x38(%rbp)
  402583:	0f 87 48 ff ff ff    	ja     4024d1 <__sel4runtime_memcpy+0x427>
  402589:	eb 01                	jmp    40258c <__sel4runtime_memcpy+0x4e2>
  40258b:	90                   	nop
  40258c:	48 8b 45 c8          	mov    -0x38(%rbp),%rax
  402590:	83 e0 10             	and    $0x10,%eax
  402593:	48 85 c0             	test   %rax,%rax
  402596:	0f 84 d0 01 00 00    	je     40276c <__sel4runtime_memcpy+0x6c2>
  40259c:	48 8b 55 f0          	mov    -0x10(%rbp),%rdx
  4025a0:	48 8d 42 01          	lea    0x1(%rdx),%rax
  4025a4:	48 89 45 f0          	mov    %rax,-0x10(%rbp)
  4025a8:	48 8b 45 f8          	mov    -0x8(%rbp),%rax
  4025ac:	48 8d 48 01          	lea    0x1(%rax),%rcx
  4025b0:	48 89 4d f8          	mov    %rcx,-0x8(%rbp)
  4025b4:	0f b6 12             	movzbl (%rdx),%edx
  4025b7:	88 10                	mov    %dl,(%rax)
  4025b9:	48 8b 55 f0          	mov    -0x10(%rbp),%rdx
  4025bd:	48 8d 42 01          	lea    0x1(%rdx),%rax
  4025c1:	48 89 45 f0          	mov    %rax,-0x10(%rbp)
  4025c5:	48 8b 45 f8          	mov    -0x8(%rbp),%rax
  4025c9:	48 8d 48 01          	lea    0x1(%rax),%rcx
  4025cd:	48 89 4d f8          	mov    %rcx,-0x8(%rbp)
  4025d1:	0f b6 12             	movzbl (%rdx),%edx
  4025d4:	88 10                	mov    %dl,(%rax)
  4025d6:	48 8b 55 f0          	mov    -0x10(%rbp),%rdx
  4025da:	48 8d 42 01          	lea    0x1(%rdx),%rax
  4025de:	48 89 45 f0          	mov    %rax,-0x10(%rbp)
  4025e2:	48 8b 45 f8          	mov    -0x8(%rbp),%rax
  4025e6:	48 8d 48 01          	lea    0x1(%rax),%rcx
  4025ea:	48 89 4d f8          	mov    %rcx,-0x8(%rbp)
  4025ee:	0f b6 12             	movzbl (%rdx),%edx
  4025f1:	88 10                	mov    %dl,(%rax)
  4025f3:	48 8b 55 f0          	mov    -0x10(%rbp),%rdx
  4025f7:	48 8d 42 01          	lea    0x1(%rdx),%rax
  4025fb:	48 89 45 f0          	mov    %rax,-0x10(%rbp)
  4025ff:	48 8b 45 f8          	mov    -0x8(%rbp),%rax
  402603:	48 8d 48 01          	lea    0x1(%rax),%rcx
  402607:	48 89 4d f8          	mov    %rcx,-0x8(%rbp)
  40260b:	0f b6 12             	movzbl (%rdx),%edx
  40260e:	88 10                	mov    %dl,(%rax)
  402610:	48 8b 55 f0          	mov    -0x10(%rbp),%rdx
  402614:	48 8d 42 01          	lea    0x1(%rdx),%rax
  402618:	48 89 45 f0          	mov    %rax,-0x10(%rbp)
  40261c:	48 8b 45 f8          	mov    -0x8(%rbp),%rax
  402620:	48 8d 48 01          	lea    0x1(%rax),%rcx
  402624:	48 89 4d f8          	mov    %rcx,-0x8(%rbp)
  402628:	0f b6 12             	movzbl (%rdx),%edx
  40262b:	88 10                	mov    %dl,(%rax)
  40262d:	48 8b 55 f0          	mov    -0x10(%rbp),%rdx
  402631:	48 8d 42 01          	lea    0x1(%rdx),%rax
  402635:	48 89 45 f0          	mov    %rax,-0x10(%rbp)
  402639:	48 8b 45 f8          	mov    -0x8(%rbp),%rax
  40263d:	48 8d 48 01          	lea    0x1(%rax),%rcx
  402641:	48 89 4d f8          	mov    %rcx,-0x8(%rbp)
  402645:	0f b6 12             	movzbl (%rdx),%edx
  402648:	88 10                	mov    %dl,(%rax)
  40264a:	48 8b 55 f0          	mov    -0x10(%rbp),%rdx
  40264e:	48 8d 42 01          	lea    0x1(%rdx),%rax
  402652:	48 89 45 f0          	mov    %rax,-0x10(%rbp)
  402656:	48 8b 45 f8          	mov    -0x8(%rbp),%rax
  40265a:	48 8d 48 01          	lea    0x1(%rax),%rcx
  40265e:	48 89 4d f8          	mov    %rcx,-0x8(%rbp)
  402662:	0f b6 12             	movzbl (%rdx),%edx
  402665:	88 10                	mov    %dl,(%rax)
  402667:	48 8b 55 f0          	mov    -0x10(%rbp),%rdx
  40266b:	48 8d 42 01          	lea    0x1(%rdx),%rax
  40266f:	48 89 45 f0          	mov    %rax,-0x10(%rbp)
  402673:	48 8b 45 f8          	mov    -0x8(%rbp),%rax
  402677:	48 8d 48 01          	lea    0x1(%rax),%rcx
  40267b:	48 89 4d f8          	mov    %rcx,-0x8(%rbp)
  40267f:	0f b6 12             	movzbl (%rdx),%edx
  402682:	88 10                	mov    %dl,(%rax)
  402684:	48 8b 55 f0          	mov    -0x10(%rbp),%rdx
  402688:	48 8d 42 01          	lea    0x1(%rdx),%rax
  40268c:	48 89 45 f0          	mov    %rax,-0x10(%rbp)
  402690:	48 8b 45 f8          	mov    -0x8(%rbp),%rax
  402694:	48 8d 48 01          	lea    0x1(%rax),%rcx
  402698:	48 89 4d f8          	mov    %rcx,-0x8(%rbp)
  40269c:	0f b6 12             	movzbl (%rdx),%edx
  40269f:	88 10                	mov    %dl,(%rax)
  4026a1:	48 8b 55 f0          	mov    -0x10(%rbp),%rdx
  4026a5:	48 8d 42 01          	lea    0x1(%rdx),%rax
  4026a9:	48 89 45 f0          	mov    %rax,-0x10(%rbp)
  4026ad:	48 8b 45 f8          	mov    -0x8(%rbp),%rax
  4026b1:	48 8d 48 01          	lea    0x1(%rax),%rcx
  4026b5:	48 89 4d f8          	mov    %rcx,-0x8(%rbp)
  4026b9:	0f b6 12             	movzbl (%rdx),%edx
  4026bc:	88 10                	mov    %dl,(%rax)
  4026be:	48 8b 55 f0          	mov    -0x10(%rbp),%rdx
  4026c2:	48 8d 42 01          	lea    0x1(%rdx),%rax
  4026c6:	48 89 45 f0          	mov    %rax,-0x10(%rbp)
  4026ca:	48 8b 45 f8          	mov    -0x8(%rbp),%rax
  4026ce:	48 8d 48 01          	lea    0x1(%rax),%rcx
  4026d2:	48 89 4d f8          	mov    %rcx,-0x8(%rbp)
  4026d6:	0f b6 12             	movzbl (%rdx),%edx
  4026d9:	88 10                	mov    %dl,(%rax)
  4026db:	48 8b 55 f0          	mov    -0x10(%rbp),%rdx
  4026df:	48 8d 42 01          	lea    0x1(%rdx),%rax
  4026e3:	48 89 45 f0          	mov    %rax,-0x10(%rbp)
  4026e7:	48 8b 45 f8          	mov    -0x8(%rbp),%rax
  4026eb:	48 8d 48 01          	lea    0x1(%rax),%rcx
  4026ef:	48 89 4d f8          	mov    %rcx,-0x8(%rbp)
  4026f3:	0f b6 12             	movzbl (%rdx),%edx
  4026f6:	88 10                	mov    %dl,(%rax)
  4026f8:	48 8b 55 f0          	mov    -0x10(%rbp),%rdx
  4026fc:	48 8d 42 01          	lea    0x1(%rdx),%rax
  402700:	48 89 45 f0          	mov    %rax,-0x10(%rbp)
  402704:	48 8b 45 f8          	mov    -0x8(%rbp),%rax
  402708:	48 8d 48 01          	lea    0x1(%rax),%rcx
  40270c:	48 89 4d f8          	mov    %rcx,-0x8(%rbp)
  402710:	0f b6 12             	movzbl (%rdx),%edx
  402713:	88 10                	mov    %dl,(%rax)
  402715:	48 8b 55 f0          	mov    -0x10(%rbp),%rdx
  402719:	48 8d 42 01          	lea    0x1(%rdx),%rax
  40271d:	48 89 45 f0          	mov    %rax,-0x10(%rbp)
  402721:	48 8b 45 f8          	mov    -0x8(%rbp),%rax
  402725:	48 8d 48 01          	lea    0x1(%rax),%rcx
  402729:	48 89 4d f8          	mov    %rcx,-0x8(%rbp)
  40272d:	0f b6 12             	movzbl (%rdx),%edx
  402730:	88 10                	mov    %dl,(%rax)
  402732:	48 8b 55 f0          	mov    -0x10(%rbp),%rdx
  402736:	48 8d 42 01          	lea    0x1(%rdx),%rax
  40273a:	48 89 45 f0          	mov    %rax,-0x10(%rbp)
  40273e:	48 8b 45 f8          	mov    -0x8(%rbp),%rax
  402742:	48 8d 48 01          	lea    0x1(%rax),%rcx
  402746:	48 89 4d f8          	mov    %rcx,-0x8(%rbp)
  40274a:	0f b6 12             	movzbl (%rdx),%edx
  40274d:	88 10                	mov    %dl,(%rax)
  40274f:	48 8b 55 f0          	mov    -0x10(%rbp),%rdx
  402753:	48 8d 42 01          	lea    0x1(%rdx),%rax
  402757:	48 89 45 f0          	mov    %rax,-0x10(%rbp)
  40275b:	48 8b 45 f8          	mov    -0x8(%rbp),%rax
  40275f:	48 8d 48 01          	lea    0x1(%rax),%rcx
  402763:	48 89 4d f8          	mov    %rcx,-0x8(%rbp)
  402767:	0f b6 12             	movzbl (%rdx),%edx
  40276a:	88 10                	mov    %dl,(%rax)
  40276c:	48 8b 45 c8          	mov    -0x38(%rbp),%rax
  402770:	83 e0 08             	and    $0x8,%eax
  402773:	48 85 c0             	test   %rax,%rax
  402776:	0f 84 e8 00 00 00    	je     402864 <__sel4runtime_memcpy+0x7ba>
  40277c:	48 8b 55 f0          	mov    -0x10(%rbp),%rdx
  402780:	48 8d 42 01          	lea    0x1(%rdx),%rax
  402784:	48 89 45 f0          	mov    %rax,-0x10(%rbp)
  402788:	48 8b 45 f8          	mov    -0x8(%rbp),%rax
  40278c:	48 8d 48 01          	lea    0x1(%rax),%rcx
  402790:	48 89 4d f8          	mov    %rcx,-0x8(%rbp)
  402794:	0f b6 12             	movzbl (%rdx),%edx
  402797:	88 10                	mov    %dl,(%rax)
  402799:	48 8b 55 f0          	mov    -0x10(%rbp),%rdx
  40279d:	48 8d 42 01          	lea    0x1(%rdx),%rax
  4027a1:	48 89 45 f0          	mov    %rax,-0x10(%rbp)
  4027a5:	48 8b 45 f8          	mov    -0x8(%rbp),%rax
  4027a9:	48 8d 48 01          	lea    0x1(%rax),%rcx
  4027ad:	48 89 4d f8          	mov    %rcx,-0x8(%rbp)
  4027b1:	0f b6 12             	movzbl (%rdx),%edx
  4027b4:	88 10                	mov    %dl,(%rax)
  4027b6:	48 8b 55 f0          	mov    -0x10(%rbp),%rdx
  4027ba:	48 8d 42 01          	lea    0x1(%rdx),%rax
  4027be:	48 89 45 f0          	mov    %rax,-0x10(%rbp)
  4027c2:	48 8b 45 f8          	mov    -0x8(%rbp),%rax
  4027c6:	48 8d 48 01          	lea    0x1(%rax),%rcx
  4027ca:	48 89 4d f8          	mov    %rcx,-0x8(%rbp)
  4027ce:	0f b6 12             	movzbl (%rdx),%edx
  4027d1:	88 10                	mov    %dl,(%rax)
  4027d3:	48 8b 55 f0          	mov    -0x10(%rbp),%rdx
  4027d7:	48 8d 42 01          	lea    0x1(%rdx),%rax
  4027db:	48 89 45 f0          	mov    %rax,-0x10(%rbp)
  4027df:	48 8b 45 f8          	mov    -0x8(%rbp),%rax
  4027e3:	48 8d 48 01          	lea    0x1(%rax),%rcx
  4027e7:	48 89 4d f8          	mov    %rcx,-0x8(%rbp)
  4027eb:	0f b6 12             	movzbl (%rdx),%edx
  4027ee:	88 10                	mov    %dl,(%rax)
  4027f0:	48 8b 55 f0          	mov    -0x10(%rbp),%rdx
  4027f4:	48 8d 42 01          	lea    0x1(%rdx),%rax
  4027f8:	48 89 45 f0          	mov    %rax,-0x10(%rbp)
  4027fc:	48 8b 45 f8          	mov    -0x8(%rbp),%rax
  402800:	48 8d 48 01          	lea    0x1(%rax),%rcx
  402804:	48 89 4d f8          	mov    %rcx,-0x8(%rbp)
  402808:	0f b6 12             	movzbl (%rdx),%edx
  40280b:	88 10                	mov    %dl,(%rax)
  40280d:	48 8b 55 f0          	mov    -0x10(%rbp),%rdx
  402811:	48 8d 42 01          	lea    0x1(%rdx),%rax
  402815:	48 89 45 f0          	mov    %rax,-0x10(%rbp)
  402819:	48 8b 45 f8          	mov    -0x8(%rbp),%rax
  40281d:	48 8d 48 01          	lea    0x1(%rax),%rcx
  402821:	48 89 4d f8          	mov    %rcx,-0x8(%rbp)
  402825:	0f b6 12             	movzbl (%rdx),%edx
  402828:	88 10                	mov    %dl,(%rax)
  40282a:	48 8b 55 f0          	mov    -0x10(%rbp),%rdx
  40282e:	48 8d 42 01          	lea    0x1(%rdx),%rax
  402832:	48 89 45 f0          	mov    %rax,-0x10(%rbp)
  402836:	48 8b 45 f8          	mov    -0x8(%rbp),%rax
  40283a:	48 8d 48 01          	lea    0x1(%rax),%rcx
  40283e:	48 89 4d f8          	mov    %rcx,-0x8(%rbp)
  402842:	0f b6 12             	movzbl (%rdx),%edx
  402845:	88 10                	mov    %dl,(%rax)
  402847:	48 8b 55 f0          	mov    -0x10(%rbp),%rdx
  40284b:	48 8d 42 01          	lea    0x1(%rdx),%rax
  40284f:	48 89 45 f0          	mov    %rax,-0x10(%rbp)
  402853:	48 8b 45 f8          	mov    -0x8(%rbp),%rax
  402857:	48 8d 48 01          	lea    0x1(%rax),%rcx
  40285b:	48 89 4d f8          	mov    %rcx,-0x8(%rbp)
  40285f:	0f b6 12             	movzbl (%rdx),%edx
  402862:	88 10                	mov    %dl,(%rax)
  402864:	48 8b 45 c8          	mov    -0x38(%rbp),%rax
  402868:	83 e0 04             	and    $0x4,%eax
  40286b:	48 85 c0             	test   %rax,%rax
  40286e:	74 74                	je     4028e4 <__sel4runtime_memcpy+0x83a>
  402870:	48 8b 55 f0          	mov    -0x10(%rbp),%rdx
  402874:	48 8d 42 01          	lea    0x1(%rdx),%rax
  402878:	48 89 45 f0          	mov    %rax,-0x10(%rbp)
  40287c:	48 8b 45 f8          	mov    -0x8(%rbp),%rax
  402880:	48 8d 48 01          	lea    0x1(%rax),%rcx
  402884:	48 89 4d f8          	mov    %rcx,-0x8(%rbp)
  402888:	0f b6 12             	movzbl (%rdx),%edx
  40288b:	88 10                	mov    %dl,(%rax)
  40288d:	48 8b 55 f0          	mov    -0x10(%rbp),%rdx
  402891:	48 8d 42 01          	lea    0x1(%rdx),%rax
  402895:	48 89 45 f0          	mov    %rax,-0x10(%rbp)
  402899:	48 8b 45 f8          	mov    -0x8(%rbp),%rax
  40289d:	48 8d 48 01          	lea    0x1(%rax),%rcx
  4028a1:	48 89 4d f8          	mov    %rcx,-0x8(%rbp)
  4028a5:	0f b6 12             	movzbl (%rdx),%edx
  4028a8:	88 10                	mov    %dl,(%rax)
  4028aa:	48 8b 55 f0          	mov    -0x10(%rbp),%rdx
  4028ae:	48 8d 42 01          	lea    0x1(%rdx),%rax
  4028b2:	48 89 45 f0          	mov    %rax,-0x10(%rbp)
  4028b6:	48 8b 45 f8          	mov    -0x8(%rbp),%rax
  4028ba:	48 8d 48 01          	lea    0x1(%rax),%rcx
  4028be:	48 89 4d f8          	mov    %rcx,-0x8(%rbp)
  4028c2:	0f b6 12             	movzbl (%rdx),%edx
  4028c5:	88 10                	mov    %dl,(%rax)
  4028c7:	48 8b 55 f0          	mov    -0x10(%rbp),%rdx
  4028cb:	48 8d 42 01          	lea    0x1(%rdx),%rax
  4028cf:	48 89 45 f0          	mov    %rax,-0x10(%rbp)
  4028d3:	48 8b 45 f8          	mov    -0x8(%rbp),%rax
  4028d7:	48 8d 48 01          	lea    0x1(%rax),%rcx
  4028db:	48 89 4d f8          	mov    %rcx,-0x8(%rbp)
  4028df:	0f b6 12             	movzbl (%rdx),%edx
  4028e2:	88 10                	mov    %dl,(%rax)
  4028e4:	48 8b 45 c8          	mov    -0x38(%rbp),%rax
  4028e8:	83 e0 02             	and    $0x2,%eax
  4028eb:	48 85 c0             	test   %rax,%rax
  4028ee:	74 3a                	je     40292a <__sel4runtime_memcpy+0x880>
  4028f0:	48 8b 55 f0          	mov    -0x10(%rbp),%rdx
  4028f4:	48 8d 42 01          	lea    0x1(%rdx),%rax
  4028f8:	48 89 45 f0          	mov    %rax,-0x10(%rbp)
  4028fc:	48 8b 45 f8          	mov    -0x8(%rbp),%rax
  402900:	48 8d 48 01          	lea    0x1(%rax),%rcx
  402904:	48 89 4d f8          	mov    %rcx,-0x8(%rbp)
  402908:	0f b6 12             	movzbl (%rdx),%edx
  40290b:	88 10                	mov    %dl,(%rax)
  40290d:	48 8b 55 f0          	mov    -0x10(%rbp),%rdx
  402911:	48 8d 42 01          	lea    0x1(%rdx),%rax
  402915:	48 89 45 f0          	mov    %rax,-0x10(%rbp)
  402919:	48 8b 45 f8          	mov    -0x8(%rbp),%rax
  40291d:	48 8d 48 01          	lea    0x1(%rax),%rcx
  402921:	48 89 4d f8          	mov    %rcx,-0x8(%rbp)
  402925:	0f b6 12             	movzbl (%rdx),%edx
  402928:	88 10                	mov    %dl,(%rax)
  40292a:	48 8b 45 c8          	mov    -0x38(%rbp),%rax
  40292e:	83 e0 01             	and    $0x1,%eax
  402931:	48 85 c0             	test   %rax,%rax
  402934:	74 0d                	je     402943 <__sel4runtime_memcpy+0x899>
  402936:	48 8b 45 f0          	mov    -0x10(%rbp),%rax
  40293a:	0f b6 00             	movzbl (%rax),%eax
  40293d:	48 8b 55 f8          	mov    -0x8(%rbp),%rdx
  402941:	88 02                	mov    %al,(%rdx)
  402943:	48 8b 45 d8          	mov    -0x28(%rbp),%rax
  402947:	5d                   	pop    %rbp
  402948:	c3                   	retq   

0000000000402949 <__sel4runtime_vsyscall>:
  402949:	f3 0f 1e fa          	endbr64 
  40294d:	55                   	push   %rbp
  40294e:	48 89 e5             	mov    %rsp,%rbp
  402951:	48 83 ec 48          	sub    $0x48,%rsp
  402955:	48 89 bd 48 ff ff ff 	mov    %rdi,-0xb8(%rbp)
  40295c:	48 89 b5 58 ff ff ff 	mov    %rsi,-0xa8(%rbp)
  402963:	48 89 95 60 ff ff ff 	mov    %rdx,-0xa0(%rbp)
  40296a:	48 89 8d 68 ff ff ff 	mov    %rcx,-0x98(%rbp)
  402971:	4c 89 85 70 ff ff ff 	mov    %r8,-0x90(%rbp)
  402978:	4c 89 8d 78 ff ff ff 	mov    %r9,-0x88(%rbp)
  40297f:	84 c0                	test   %al,%al
  402981:	74 20                	je     4029a3 <__sel4runtime_vsyscall+0x5a>
  402983:	0f 29 45 80          	movaps %xmm0,-0x80(%rbp)
  402987:	0f 29 4d 90          	movaps %xmm1,-0x70(%rbp)
  40298b:	0f 29 55 a0          	movaps %xmm2,-0x60(%rbp)
  40298f:	0f 29 5d b0          	movaps %xmm3,-0x50(%rbp)
  402993:	0f 29 65 c0          	movaps %xmm4,-0x40(%rbp)
  402997:	0f 29 6d d0          	movaps %xmm5,-0x30(%rbp)
  40299b:	0f 29 75 e0          	movaps %xmm6,-0x20(%rbp)
  40299f:	0f 29 7d f0          	movaps %xmm7,-0x10(%rbp)
  4029a3:	48 c7 c0 ff ff ff ff 	mov    $0xffffffffffffffff,%rax
  4029aa:	c9                   	leaveq 
  4029ab:	c3                   	retq   

00000000004029ac <seL4_InitBootInfo>:
  4029ac:	f3 0f 1e fa          	endbr64 
  4029b0:	55                   	push   %rbp
  4029b1:	48 89 e5             	mov    %rsp,%rbp
  4029b4:	48 89 7d f8          	mov    %rdi,-0x8(%rbp)
  4029b8:	48 8b 45 f8          	mov    -0x8(%rbp),%rax
  4029bc:	48 89 05 5d f7 01 00 	mov    %rax,0x1f75d(%rip)        # 422120 <bootinfo>
  4029c3:	90                   	nop
  4029c4:	5d                   	pop    %rbp
  4029c5:	c3                   	retq   

00000000004029c6 <seL4_GetBootInfo>:
  4029c6:	f3 0f 1e fa          	endbr64 
  4029ca:	55                   	push   %rbp
  4029cb:	48 89 e5             	mov    %rsp,%rbp
  4029ce:	48 8b 05 4b f7 01 00 	mov    0x1f74b(%rip),%rax        # 422120 <bootinfo>
  4029d5:	5d                   	pop    %rbp
  4029d6:	c3                   	retq   

00000000004029d7 <x64_sys_send_recv>:
  4029d7:	55                   	push   %rbp
  4029d8:	48 89 e5             	mov    %rsp,%rbp
  4029db:	41 57                	push   %r15
  4029dd:	53                   	push   %rbx
  4029de:	48 89 7d e8          	mov    %rdi,-0x18(%rbp)
  4029e2:	48 89 75 e0          	mov    %rsi,-0x20(%rbp)
  4029e6:	48 89 55 d8          	mov    %rdx,-0x28(%rbp)
  4029ea:	48 89 4d d0          	mov    %rcx,-0x30(%rbp)
  4029ee:	4c 89 45 c8          	mov    %r8,-0x38(%rbp)
  4029f2:	4c 89 4d c0          	mov    %r9,-0x40(%rbp)
  4029f6:	48 8b 45 c0          	mov    -0x40(%rbp),%rax
  4029fa:	48 8b 00             	mov    (%rax),%rax
  4029fd:	49 89 c2             	mov    %rax,%r10
  402a00:	48 8b 45 10          	mov    0x10(%rbp),%rax
  402a04:	48 8b 00             	mov    (%rax),%rax
  402a07:	49 89 c0             	mov    %rax,%r8
  402a0a:	48 8b 45 18          	mov    0x18(%rbp),%rax
  402a0e:	48 8b 00             	mov    (%rax),%rax
  402a11:	49 89 c1             	mov    %rax,%r9
  402a14:	48 8b 45 20          	mov    0x20(%rbp),%rax
  402a18:	48 8b 00             	mov    (%rax),%rax
  402a1b:	49 89 c7             	mov    %rax,%r15
  402a1e:	48 8b 45 e8          	mov    -0x18(%rbp),%rax
  402a22:	48 8b 7d e0          	mov    -0x20(%rbp),%rdi
  402a26:	48 8b 75 d0          	mov    -0x30(%rbp),%rsi
  402a2a:	48 89 c2             	mov    %rax,%rdx
  402a2d:	48 89 e3             	mov    %rsp,%rbx
  402a30:	0f 05                	syscall 
  402a32:	48 89 dc             	mov    %rbx,%rsp
  402a35:	48 89 f8             	mov    %rdi,%rax
  402a38:	48 89 f2             	mov    %rsi,%rdx
  402a3b:	48 8b 4d c8          	mov    -0x38(%rbp),%rcx
  402a3f:	48 89 11             	mov    %rdx,(%rcx)
  402a42:	48 8b 55 d8          	mov    -0x28(%rbp),%rdx
  402a46:	48 89 02             	mov    %rax,(%rdx)
  402a49:	4c 89 d2             	mov    %r10,%rdx
  402a4c:	48 8b 45 c0          	mov    -0x40(%rbp),%rax
  402a50:	48 89 10             	mov    %rdx,(%rax)
  402a53:	4c 89 c2             	mov    %r8,%rdx
  402a56:	48 8b 45 10          	mov    0x10(%rbp),%rax
  402a5a:	48 89 10             	mov    %rdx,(%rax)
  402a5d:	4c 89 ca             	mov    %r9,%rdx
  402a60:	48 8b 45 18          	mov    0x18(%rbp),%rax
  402a64:	48 89 10             	mov    %rdx,(%rax)
  402a67:	4c 89 fa             	mov    %r15,%rdx
  402a6a:	48 8b 45 20          	mov    0x20(%rbp),%rax
  402a6e:	48 89 10             	mov    %rdx,(%rax)
  402a71:	90                   	nop
  402a72:	5b                   	pop    %rbx
  402a73:	41 5f                	pop    %r15
  402a75:	5d                   	pop    %rbp
  402a76:	c3                   	retq   

0000000000402a77 <seL4_DebugPutChar>:
  402a77:	55                   	push   %rbp
  402a78:	48 89 e5             	mov    %rsp,%rbp
  402a7b:	48 83 ec 38          	sub    $0x38,%rsp
  402a7f:	89 f8                	mov    %edi,%eax
  402a81:	88 45 cc             	mov    %al,-0x34(%rbp)
  402a84:	48 c7 45 f8 00 00 00 	movq   $0x0,-0x8(%rbp)
  402a8b:	00 
  402a8c:	48 c7 45 f0 00 00 00 	movq   $0x0,-0x10(%rbp)
  402a93:	00 
  402a94:	48 c7 45 e8 00 00 00 	movq   $0x0,-0x18(%rbp)
  402a9b:	00 
  402a9c:	48 c7 45 e0 00 00 00 	movq   $0x0,-0x20(%rbp)
  402aa3:	00 
  402aa4:	48 c7 45 d8 00 00 00 	movq   $0x0,-0x28(%rbp)
  402aab:	00 
  402aac:	48 c7 45 d0 00 00 00 	movq   $0x0,-0x30(%rbp)
  402ab3:	00 
  402ab4:	48 0f be 45 cc       	movsbq -0x34(%rbp),%rax
  402ab9:	48 8d 7d e8          	lea    -0x18(%rbp),%rdi
  402abd:	48 8d 75 f0          	lea    -0x10(%rbp),%rsi
  402ac1:	48 8d 55 f8          	lea    -0x8(%rbp),%rdx
  402ac5:	6a 00                	pushq  $0x0
  402ac7:	48 8d 4d d0          	lea    -0x30(%rbp),%rcx
  402acb:	51                   	push   %rcx
  402acc:	48 8d 4d d8          	lea    -0x28(%rbp),%rcx
  402ad0:	51                   	push   %rcx
  402ad1:	48 8d 4d e0          	lea    -0x20(%rbp),%rcx
  402ad5:	51                   	push   %rcx
  402ad6:	49 89 f9             	mov    %rdi,%r9
  402ad9:	49 89 f0             	mov    %rsi,%r8
  402adc:	b9 00 00 00 00       	mov    $0x0,%ecx
  402ae1:	48 89 c6             	mov    %rax,%rsi
  402ae4:	48 c7 c7 f7 ff ff ff 	mov    $0xfffffffffffffff7,%rdi
  402aeb:	e8 e7 fe ff ff       	callq  4029d7 <x64_sys_send_recv>
  402af0:	48 83 c4 20          	add    $0x20,%rsp
  402af4:	90                   	nop
  402af5:	c9                   	leaveq 
  402af6:	c3                   	retq   

0000000000402af7 <kernel_putchar_write>:
  402af7:	f3 0f 1e fa          	endbr64 
  402afb:	55                   	push   %rbp
  402afc:	48 89 e5             	mov    %rsp,%rbp
  402aff:	48 83 ec 20          	sub    $0x20,%rsp
  402b03:	48 89 7d e8          	mov    %rdi,-0x18(%rbp)
  402b07:	48 89 75 e0          	mov    %rsi,-0x20(%rbp)
  402b0b:	48 8b 45 e8          	mov    -0x18(%rbp),%rax
  402b0f:	48 89 45 f0          	mov    %rax,-0x10(%rbp)
  402b13:	48 c7 45 f8 00 00 00 	movq   $0x0,-0x8(%rbp)
  402b1a:	00 
  402b1b:	eb 1d                	jmp    402b3a <kernel_putchar_write+0x43>
  402b1d:	48 8b 55 f0          	mov    -0x10(%rbp),%rdx
  402b21:	48 8b 45 f8          	mov    -0x8(%rbp),%rax
  402b25:	48 01 d0             	add    %rdx,%rax
  402b28:	0f b6 00             	movzbl (%rax),%eax
  402b2b:	0f be c0             	movsbl %al,%eax
  402b2e:	89 c7                	mov    %eax,%edi
  402b30:	e8 42 ff ff ff       	callq  402a77 <seL4_DebugPutChar>
  402b35:	48 83 45 f8 01       	addq   $0x1,-0x8(%rbp)
  402b3a:	48 8b 45 f8          	mov    -0x8(%rbp),%rax
  402b3e:	48 3b 45 e0          	cmp    -0x20(%rbp),%rax
  402b42:	72 d9                	jb     402b1d <kernel_putchar_write+0x26>
  402b44:	48 8b 45 e0          	mov    -0x20(%rbp),%rax
  402b48:	c9                   	leaveq 
  402b49:	c3                   	retq   

0000000000402b4a <register_debug_putchar>:
  402b4a:	f3 0f 1e fa          	endbr64 
  402b4e:	55                   	push   %rbp
  402b4f:	48 89 e5             	mov    %rsp,%rbp
  402b52:	bf f7 2a 40 00       	mov    $0x402af7,%edi
  402b57:	e8 da 09 00 00       	callq  403536 <sel4muslcsys_register_stdio_write_fn>
  402b5c:	90                   	nop
  402b5d:	5d                   	pop    %rbp
  402b5e:	c3                   	retq   

0000000000402b5f <name_thread>:
  402b5f:	f3 0f 1e fa          	endbr64 
  402b63:	55                   	push   %rbp
  402b64:	48 89 e5             	mov    %rsp,%rbp
  402b67:	48 89 7d f8          	mov    %rdi,-0x8(%rbp)
  402b6b:	48 89 75 f0          	mov    %rsi,-0x10(%rbp)
  402b6f:	90                   	nop
  402b70:	5d                   	pop    %rbp
  402b71:	c3                   	retq   

0000000000402b72 <add_free_fd>:
  402b72:	f3 0f 1e fa          	endbr64 
  402b76:	55                   	push   %rbp
  402b77:	48 89 e5             	mov    %rsp,%rbp
  402b7a:	48 83 ec 10          	sub    $0x10,%rsp
  402b7e:	89 7d fc             	mov    %edi,-0x4(%rbp)
  402b81:	8b 45 fc             	mov    -0x4(%rbp),%eax
  402b84:	89 c7                	mov    %eax,%edi
  402b86:	e8 5b 03 00 00       	callq  402ee6 <get_fd_struct>
  402b8b:	c7 00 ff ff ff ff    	movl   $0xffffffff,(%rax)
  402b91:	8b 05 51 e5 01 00    	mov    0x1e551(%rip),%eax        # 4210e8 <free_fd_table_index>
  402b97:	83 c0 01             	add    $0x1,%eax
  402b9a:	89 05 48 e5 01 00    	mov    %eax,0x1e548(%rip)        # 4210e8 <free_fd_table_index>
  402ba0:	8b 15 42 e5 01 00    	mov    0x1e542(%rip),%edx        # 4210e8 <free_fd_table_index>
  402ba6:	8b 05 5c 44 01 00    	mov    0x1445c(%rip),%eax        # 417008 <num_fds>
  402bac:	39 c2                	cmp    %eax,%edx
  402bae:	7c 19                	jl     402bc9 <add_free_fd+0x57>
  402bb0:	b9 c0 22 41 00       	mov    $0x4122c0,%ecx
  402bb5:	ba 3c 00 00 00       	mov    $0x3c,%edx
  402bba:	be 68 20 41 00       	mov    $0x412068,%esi
  402bbf:	bf d1 20 41 00       	mov    $0x4120d1,%edi
  402bc4:	e8 3b 87 00 00       	callq  40b304 <__assert_fail>
  402bc9:	48 8b 15 10 e5 01 00 	mov    0x1e510(%rip),%rdx        # 4210e0 <free_fd_table>
  402bd0:	8b 05 12 e5 01 00    	mov    0x1e512(%rip),%eax        # 4210e8 <free_fd_table_index>
  402bd6:	48 98                	cltq   
  402bd8:	48 c1 e0 02          	shl    $0x2,%rax
  402bdc:	48 01 d0             	add    %rdx,%rax
  402bdf:	8b 55 fc             	mov    -0x4(%rbp),%edx
  402be2:	89 10                	mov    %edx,(%rax)
  402be4:	90                   	nop
  402be5:	c9                   	leaveq 
  402be6:	c3                   	retq   

0000000000402be7 <get_free_fd>:
  402be7:	f3 0f 1e fa          	endbr64 
  402beb:	55                   	push   %rbp
  402bec:	48 89 e5             	mov    %rsp,%rbp
  402bef:	8b 05 f3 e4 01 00    	mov    0x1e4f3(%rip),%eax        # 4210e8 <free_fd_table_index>
  402bf5:	83 f8 ff             	cmp    $0xffffffff,%eax
  402bf8:	75 07                	jne    402c01 <get_free_fd+0x1a>
  402bfa:	b8 e8 ff ff ff       	mov    $0xffffffe8,%eax
  402bff:	eb 2b                	jmp    402c2c <get_free_fd+0x45>
  402c01:	8b 05 e1 e4 01 00    	mov    0x1e4e1(%rip),%eax        # 4210e8 <free_fd_table_index>
  402c07:	83 e8 01             	sub    $0x1,%eax
  402c0a:	89 05 d8 e4 01 00    	mov    %eax,0x1e4d8(%rip)        # 4210e8 <free_fd_table_index>
  402c10:	48 8b 15 c9 e4 01 00 	mov    0x1e4c9(%rip),%rdx        # 4210e0 <free_fd_table>
  402c17:	8b 05 cb e4 01 00    	mov    0x1e4cb(%rip),%eax        # 4210e8 <free_fd_table_index>
  402c1d:	48 98                	cltq   
  402c1f:	48 83 c0 01          	add    $0x1,%rax
  402c23:	48 c1 e0 02          	shl    $0x2,%rax
  402c27:	48 01 d0             	add    %rdx,%rax
  402c2a:	8b 00                	mov    (%rax),%eax
  402c2c:	5d                   	pop    %rbp
  402c2d:	c3                   	retq   

0000000000402c2e <valid_fd>:
  402c2e:	f3 0f 1e fa          	endbr64 
  402c32:	55                   	push   %rbp
  402c33:	48 89 e5             	mov    %rsp,%rbp
  402c36:	89 7d fc             	mov    %edi,-0x4(%rbp)
  402c39:	8b 05 c9 43 01 00    	mov    0x143c9(%rip),%eax        # 417008 <num_fds>
  402c3f:	39 45 fc             	cmp    %eax,-0x4(%rbp)
  402c42:	7d 0d                	jge    402c51 <valid_fd+0x23>
  402c44:	83 7d fc 02          	cmpl   $0x2,-0x4(%rbp)
  402c48:	7e 07                	jle    402c51 <valid_fd+0x23>
  402c4a:	b8 01 00 00 00       	mov    $0x1,%eax
  402c4f:	eb 05                	jmp    402c56 <valid_fd+0x28>
  402c51:	b8 00 00 00 00       	mov    $0x0,%eax
  402c56:	5d                   	pop    %rbp
  402c57:	c3                   	retq   

0000000000402c58 <allocate_file_table>:
  402c58:	f3 0f 1e fa          	endbr64 
  402c5c:	55                   	push   %rbp
  402c5d:	48 89 e5             	mov    %rsp,%rbp
  402c60:	48 83 ec 10          	sub    $0x10,%rsp
  402c64:	8b 05 9e 43 01 00    	mov    0x1439e(%rip),%eax        # 417008 <num_fds>
  402c6a:	48 98                	cltq   
  402c6c:	48 c1 e0 04          	shl    $0x4,%rax
  402c70:	48 89 c7             	mov    %rax,%rdi
  402c73:	e8 be 8c 00 00       	callq  40b936 <malloc>
  402c78:	48 89 05 59 e4 01 00 	mov    %rax,0x1e459(%rip)        # 4210d8 <fd_table>
  402c7f:	48 8b 05 52 e4 01 00 	mov    0x1e452(%rip),%rax        # 4210d8 <fd_table>
  402c86:	48 85 c0             	test   %rax,%rax
  402c89:	75 07                	jne    402c92 <allocate_file_table+0x3a>
  402c8b:	b8 f4 ff ff ff       	mov    $0xfffffff4,%eax
  402c90:	eb 71                	jmp    402d03 <allocate_file_table+0xab>
  402c92:	8b 05 70 43 01 00    	mov    0x14370(%rip),%eax        # 417008 <num_fds>
  402c98:	83 e8 03             	sub    $0x3,%eax
  402c9b:	48 98                	cltq   
  402c9d:	48 c1 e0 02          	shl    $0x2,%rax
  402ca1:	48 89 c7             	mov    %rax,%rdi
  402ca4:	e8 8d 8c 00 00       	callq  40b936 <malloc>
  402ca9:	48 89 05 30 e4 01 00 	mov    %rax,0x1e430(%rip)        # 4210e0 <free_fd_table>
  402cb0:	48 8b 05 29 e4 01 00 	mov    0x1e429(%rip),%rax        # 4210e0 <free_fd_table>
  402cb7:	48 85 c0             	test   %rax,%rax
  402cba:	75 16                	jne    402cd2 <allocate_file_table+0x7a>
  402cbc:	48 8b 05 15 e4 01 00 	mov    0x1e415(%rip),%rax        # 4210d8 <fd_table>
  402cc3:	48 89 c7             	mov    %rax,%rdi
  402cc6:	e8 37 8a 00 00       	callq  40b702 <free>
  402ccb:	b8 f4 ff ff ff       	mov    $0xfffffff4,%eax
  402cd0:	eb 31                	jmp    402d03 <allocate_file_table+0xab>
  402cd2:	c7 05 0c e4 01 00 ff 	movl   $0xffffffff,0x1e40c(%rip)        # 4210e8 <free_fd_table_index>
  402cd9:	ff ff ff 
  402cdc:	c7 45 fc 03 00 00 00 	movl   $0x3,-0x4(%rbp)
  402ce3:	eb 0e                	jmp    402cf3 <allocate_file_table+0x9b>
  402ce5:	8b 45 fc             	mov    -0x4(%rbp),%eax
  402ce8:	89 c7                	mov    %eax,%edi
  402cea:	e8 83 fe ff ff       	callq  402b72 <add_free_fd>
  402cef:	83 45 fc 01          	addl   $0x1,-0x4(%rbp)
  402cf3:	8b 05 0f 43 01 00    	mov    0x1430f(%rip),%eax        # 417008 <num_fds>
  402cf9:	39 45 fc             	cmp    %eax,-0x4(%rbp)
  402cfc:	7c e7                	jl     402ce5 <allocate_file_table+0x8d>
  402cfe:	b8 00 00 00 00       	mov    $0x0,%eax
  402d03:	c9                   	leaveq 
  402d04:	c3                   	retq   

0000000000402d05 <grow_fds>:
  402d05:	f3 0f 1e fa          	endbr64 
  402d09:	55                   	push   %rbp
  402d0a:	48 89 e5             	mov    %rsp,%rbp
  402d0d:	48 83 ec 30          	sub    $0x30,%rsp
  402d11:	89 7d dc             	mov    %edi,-0x24(%rbp)
  402d14:	8b 15 ee 42 01 00    	mov    0x142ee(%rip),%edx        # 417008 <num_fds>
  402d1a:	8b 45 dc             	mov    -0x24(%rbp),%eax
  402d1d:	01 d0                	add    %edx,%eax
  402d1f:	89 45 f8             	mov    %eax,-0x8(%rbp)
  402d22:	48 8b 05 af e3 01 00 	mov    0x1e3af(%rip),%rax        # 4210d8 <fd_table>
  402d29:	48 85 c0             	test   %rax,%rax
  402d2c:	75 14                	jne    402d42 <grow_fds+0x3d>
  402d2e:	e8 25 ff ff ff       	callq  402c58 <allocate_file_table>
  402d33:	83 f8 f4             	cmp    $0xfffffff4,%eax
  402d36:	75 0a                	jne    402d42 <grow_fds+0x3d>
  402d38:	b8 f4 ff ff ff       	mov    $0xfffffff4,%eax
  402d3d:	e9 76 01 00 00       	jmpq   402eb8 <grow_fds+0x1b3>
  402d42:	8b 45 f8             	mov    -0x8(%rbp),%eax
  402d45:	48 98                	cltq   
  402d47:	48 c1 e0 04          	shl    $0x4,%rax
  402d4b:	48 89 c7             	mov    %rax,%rdi
  402d4e:	e8 e3 8b 00 00       	callq  40b936 <malloc>
  402d53:	48 89 45 f0          	mov    %rax,-0x10(%rbp)
  402d57:	48 83 7d f0 00       	cmpq   $0x0,-0x10(%rbp)
  402d5c:	75 3f                	jne    402d9d <grow_fds+0x98>
  402d5e:	8b 05 fc e6 01 00    	mov    0x1e6fc(%rip),%eax        # 421460 <_zf_log_output_lvl>
  402d64:	83 f8 05             	cmp    $0x5,%eax
  402d67:	7f 2a                	jg     402d93 <grow_fds+0x8e>
  402d69:	41 b9 ef 20 41 00    	mov    $0x4120ef,%r9d
  402d6f:	41 b8 00 00 00 00    	mov    $0x0,%r8d
  402d75:	b9 05 00 00 00       	mov    $0x5,%ecx
  402d7a:	ba 74 00 00 00       	mov    $0x74,%edx
  402d7f:	be 68 20 41 00       	mov    $0x412068,%esi
  402d84:	bf d0 22 41 00       	mov    $0x4122d0,%edi
  402d89:	b8 00 00 00 00       	mov    $0x0,%eax
  402d8e:	e8 ec 7d 00 00       	callq  40ab7f <_zf_log_write_d>
  402d93:	b8 f4 ff ff ff       	mov    $0xfffffff4,%eax
  402d98:	e9 1b 01 00 00       	jmpq   402eb8 <grow_fds+0x1b3>
  402d9d:	8b 45 f8             	mov    -0x8(%rbp),%eax
  402da0:	83 e8 03             	sub    $0x3,%eax
  402da3:	48 98                	cltq   
  402da5:	48 c1 e0 02          	shl    $0x2,%rax
  402da9:	48 89 c7             	mov    %rax,%rdi
  402dac:	e8 85 8b 00 00       	callq  40b936 <malloc>
  402db1:	48 89 45 e8          	mov    %rax,-0x18(%rbp)
  402db5:	48 83 7d e8 00       	cmpq   $0x0,-0x18(%rbp)
  402dba:	75 4b                	jne    402e07 <grow_fds+0x102>
  402dbc:	48 8b 45 f0          	mov    -0x10(%rbp),%rax
  402dc0:	48 89 c7             	mov    %rax,%rdi
  402dc3:	e8 3a 89 00 00       	callq  40b702 <free>
  402dc8:	8b 05 92 e6 01 00    	mov    0x1e692(%rip),%eax        # 421460 <_zf_log_output_lvl>
  402dce:	83 f8 05             	cmp    $0x5,%eax
  402dd1:	7f 2a                	jg     402dfd <grow_fds+0xf8>
  402dd3:	41 b9 10 21 41 00    	mov    $0x412110,%r9d
  402dd9:	41 b8 00 00 00 00    	mov    $0x0,%r8d
  402ddf:	b9 05 00 00 00       	mov    $0x5,%ecx
  402de4:	ba 7b 00 00 00       	mov    $0x7b,%edx
  402de9:	be 68 20 41 00       	mov    $0x412068,%esi
  402dee:	bf d0 22 41 00       	mov    $0x4122d0,%edi
  402df3:	b8 00 00 00 00       	mov    $0x0,%eax
  402df8:	e8 82 7d 00 00       	callq  40ab7f <_zf_log_write_d>
  402dfd:	b8 f4 ff ff ff       	mov    $0xfffffff4,%eax
  402e02:	e9 b1 00 00 00       	jmpq   402eb8 <grow_fds+0x1b3>
  402e07:	8b 05 fb 41 01 00    	mov    0x141fb(%rip),%eax        # 417008 <num_fds>
  402e0d:	83 e8 03             	sub    $0x3,%eax
  402e10:	48 98                	cltq   
  402e12:	48 8d 14 85 00 00 00 	lea    0x0(,%rax,4),%rdx
  402e19:	00 
  402e1a:	48 8b 0d bf e2 01 00 	mov    0x1e2bf(%rip),%rcx        # 4210e0 <free_fd_table>
  402e21:	48 8b 45 e8          	mov    -0x18(%rbp),%rax
  402e25:	48 89 ce             	mov    %rcx,%rsi
  402e28:	48 89 c7             	mov    %rax,%rdi
  402e2b:	e8 07 b4 00 00       	callq  40e237 <memcpy>
  402e30:	8b 05 d2 41 01 00    	mov    0x141d2(%rip),%eax        # 417008 <num_fds>
  402e36:	48 98                	cltq   
  402e38:	48 c1 e0 04          	shl    $0x4,%rax
  402e3c:	48 89 c2             	mov    %rax,%rdx
  402e3f:	48 8b 0d 92 e2 01 00 	mov    0x1e292(%rip),%rcx        # 4210d8 <fd_table>
  402e46:	48 8b 45 f0          	mov    -0x10(%rbp),%rax
  402e4a:	48 89 ce             	mov    %rcx,%rsi
  402e4d:	48 89 c7             	mov    %rax,%rdi
  402e50:	e8 e2 b3 00 00       	callq  40e237 <memcpy>
  402e55:	48 8b 05 7c e2 01 00 	mov    0x1e27c(%rip),%rax        # 4210d8 <fd_table>
  402e5c:	48 89 c7             	mov    %rax,%rdi
  402e5f:	e8 9e 88 00 00       	callq  40b702 <free>
  402e64:	48 8b 05 75 e2 01 00 	mov    0x1e275(%rip),%rax        # 4210e0 <free_fd_table>
  402e6b:	48 89 c7             	mov    %rax,%rdi
  402e6e:	e8 8f 88 00 00       	callq  40b702 <free>
  402e73:	48 8b 45 f0          	mov    -0x10(%rbp),%rax
  402e77:	48 89 05 5a e2 01 00 	mov    %rax,0x1e25a(%rip)        # 4210d8 <fd_table>
  402e7e:	48 8b 45 e8          	mov    -0x18(%rbp),%rax
  402e82:	48 89 05 57 e2 01 00 	mov    %rax,0x1e257(%rip)        # 4210e0 <free_fd_table>
  402e89:	8b 45 f8             	mov    -0x8(%rbp),%eax
  402e8c:	89 05 76 41 01 00    	mov    %eax,0x14176(%rip)        # 417008 <num_fds>
  402e92:	8b 05 70 41 01 00    	mov    0x14170(%rip),%eax        # 417008 <num_fds>
  402e98:	89 45 fc             	mov    %eax,-0x4(%rbp)
  402e9b:	eb 0e                	jmp    402eab <grow_fds+0x1a6>
  402e9d:	8b 45 fc             	mov    -0x4(%rbp),%eax
  402ea0:	89 c7                	mov    %eax,%edi
  402ea2:	e8 cb fc ff ff       	callq  402b72 <add_free_fd>
  402ea7:	83 45 fc 01          	addl   $0x1,-0x4(%rbp)
  402eab:	8b 45 fc             	mov    -0x4(%rbp),%eax
  402eae:	3b 45 f8             	cmp    -0x8(%rbp),%eax
  402eb1:	7c ea                	jl     402e9d <grow_fds+0x198>
  402eb3:	b8 00 00 00 00       	mov    $0x0,%eax
  402eb8:	c9                   	leaveq 
  402eb9:	c3                   	retq   

0000000000402eba <allocate_fd>:
  402eba:	f3 0f 1e fa          	endbr64 
  402ebe:	55                   	push   %rbp
  402ebf:	48 89 e5             	mov    %rsp,%rbp
  402ec2:	48 8b 05 0f e2 01 00 	mov    0x1e20f(%rip),%rax        # 4210d8 <fd_table>
  402ec9:	48 85 c0             	test   %rax,%rax
  402ecc:	75 11                	jne    402edf <allocate_fd+0x25>
  402ece:	e8 85 fd ff ff       	callq  402c58 <allocate_file_table>
  402ed3:	83 f8 f4             	cmp    $0xfffffff4,%eax
  402ed6:	75 07                	jne    402edf <allocate_fd+0x25>
  402ed8:	b8 f4 ff ff ff       	mov    $0xfffffff4,%eax
  402edd:	eb 05                	jmp    402ee4 <allocate_fd+0x2a>
  402edf:	e8 03 fd ff ff       	callq  402be7 <get_free_fd>
  402ee4:	5d                   	pop    %rbp
  402ee5:	c3                   	retq   

0000000000402ee6 <get_fd_struct>:
  402ee6:	f3 0f 1e fa          	endbr64 
  402eea:	55                   	push   %rbp
  402eeb:	48 89 e5             	mov    %rsp,%rbp
  402eee:	48 83 ec 10          	sub    $0x10,%rsp
  402ef2:	89 7d fc             	mov    %edi,-0x4(%rbp)
  402ef5:	8b 05 0d 41 01 00    	mov    0x1410d(%rip),%eax        # 417008 <num_fds>
  402efb:	39 45 fc             	cmp    %eax,-0x4(%rbp)
  402efe:	7d 06                	jge    402f06 <get_fd_struct+0x20>
  402f00:	83 7d fc 02          	cmpl   $0x2,-0x4(%rbp)
  402f04:	7f 19                	jg     402f1f <get_fd_struct+0x39>
  402f06:	b9 e0 22 41 00       	mov    $0x4122e0,%ecx
  402f0b:	ba a2 00 00 00       	mov    $0xa2,%edx
  402f10:	be 68 20 41 00       	mov    $0x412068,%esi
  402f15:	bf 38 21 41 00       	mov    $0x412138,%edi
  402f1a:	e8 e5 83 00 00       	callq  40b304 <__assert_fail>
  402f1f:	48 8b 15 b2 e1 01 00 	mov    0x1e1b2(%rip),%rdx        # 4210d8 <fd_table>
  402f26:	8b 45 fc             	mov    -0x4(%rbp),%eax
  402f29:	48 98                	cltq   
  402f2b:	48 c1 e0 04          	shl    $0x4,%rax
  402f2f:	48 83 e8 30          	sub    $0x30,%rax
  402f33:	48 01 d0             	add    %rdx,%rax
  402f36:	c9                   	leaveq 
  402f37:	c3                   	retq   

0000000000402f38 <sys_platform_write>:
  402f38:	f3 0f 1e fa          	endbr64 
  402f3c:	55                   	push   %rbp
  402f3d:	48 89 e5             	mov    %rsp,%rbp
  402f40:	48 83 ec 20          	sub    $0x20,%rsp
  402f44:	48 89 7d e8          	mov    %rdi,-0x18(%rbp)
  402f48:	48 89 75 e0          	mov    %rsi,-0x20(%rbp)
  402f4c:	48 8b 45 e8          	mov    -0x18(%rbp),%rax
  402f50:	48 89 45 f8          	mov    %rax,-0x8(%rbp)
  402f54:	48 8b 55 e0          	mov    -0x20(%rbp),%rdx
  402f58:	48 8b 45 f8          	mov    -0x8(%rbp),%rax
  402f5c:	48 89 d6             	mov    %rdx,%rsi
  402f5f:	48 89 c7             	mov    %rax,%rdi
  402f62:	e8 ec 38 00 00       	callq  406853 <__arch_write>
  402f67:	c9                   	leaveq 
  402f68:	c3                   	retq   

0000000000402f69 <sys_open_impl>:
  402f69:	f3 0f 1e fa          	endbr64 
  402f6d:	55                   	push   %rbp
  402f6e:	48 89 e5             	mov    %rsp,%rbp
  402f71:	48 83 ec 40          	sub    $0x40,%rsp
  402f75:	48 89 7d c8          	mov    %rdi,-0x38(%rbp)
  402f79:	89 75 c4             	mov    %esi,-0x3c(%rbp)
  402f7c:	89 55 c0             	mov    %edx,-0x40(%rbp)
  402f7f:	83 7d c4 00          	cmpl   $0x0,-0x3c(%rbp)
  402f83:	74 6b                	je     402ff0 <sys_open_impl+0x87>
  402f85:	8b 05 d5 e4 01 00    	mov    0x1e4d5(%rip),%eax        # 421460 <_zf_log_output_lvl>
  402f8b:	83 f8 05             	cmp    $0x5,%eax
  402f8e:	7f 35                	jg     402fc5 <sys_open_impl+0x5c>
  402f90:	ff 75 c8             	pushq  -0x38(%rbp)
  402f93:	8b 45 c4             	mov    -0x3c(%rbp),%eax
  402f96:	50                   	push   %rax
  402f97:	41 b9 60 21 41 00    	mov    $0x412160,%r9d
  402f9d:	41 b8 00 00 00 00    	mov    $0x0,%r8d
  402fa3:	b9 05 00 00 00       	mov    $0x5,%ecx
  402fa8:	ba b2 00 00 00       	mov    $0xb2,%edx
  402fad:	be 68 20 41 00       	mov    $0x412068,%esi
  402fb2:	bf f0 22 41 00       	mov    $0x4122f0,%edi
  402fb7:	b8 00 00 00 00       	mov    $0x0,%eax
  402fbc:	e8 be 7b 00 00       	callq  40ab7f <_zf_log_write_d>
  402fc1:	48 83 c4 10          	add    $0x10,%rsp
  402fc5:	83 7d c4 00          	cmpl   $0x0,-0x3c(%rbp)
  402fc9:	74 19                	je     402fe4 <sys_open_impl+0x7b>
  402fcb:	b9 f0 22 41 00       	mov    $0x4122f0,%ecx
  402fd0:	ba b3 00 00 00       	mov    $0xb3,%edx
  402fd5:	be 68 20 41 00       	mov    $0x412068,%esi
  402fda:	bf 8d 21 41 00       	mov    $0x41218d,%edi
  402fdf:	e8 20 83 00 00       	callq  40b304 <__assert_fail>
  402fe4:	48 c7 c0 ea ff ff ff 	mov    $0xffffffffffffffea,%rax
  402feb:	e9 f1 01 00 00       	jmpq   4031e1 <sys_open_impl+0x278>
  402ff0:	48 c7 45 f8 00 00 00 	movq   $0x0,-0x8(%rbp)
  402ff7:	00 
  402ff8:	48 8b 05 d1 e0 01 00 	mov    0x1e0d1(%rip),%rax        # 4210d0 <cpio_get_file_impl>
  402fff:	48 85 c0             	test   %rax,%rax
  403002:	74 7f                	je     403083 <sys_open_impl+0x11a>
  403004:	48 8b 05 b5 e0 01 00 	mov    0x1e0b5(%rip),%rax        # 4210c0 <cpio_archive_symbol>
  40300b:	48 85 c0             	test   %rax,%rax
  40300e:	74 73                	je     403083 <sys_open_impl+0x11a>
  403010:	4c 8b 05 b9 e0 01 00 	mov    0x1e0b9(%rip),%r8        # 4210d0 <cpio_get_file_impl>
  403017:	48 8b 35 aa e0 01 00 	mov    0x1e0aa(%rip),%rsi        # 4210c8 <cpio_archive_len>
  40301e:	48 8b 3d 9b e0 01 00 	mov    0x1e09b(%rip),%rdi        # 4210c0 <cpio_archive_symbol>
  403025:	48 8d 45 d8          	lea    -0x28(%rbp),%rax
  403029:	48 8b 55 c8          	mov    -0x38(%rbp),%rdx
  40302d:	48 89 c1             	mov    %rax,%rcx
  403030:	41 ff d0             	callq  *%r8
  403033:	48 89 45 f8          	mov    %rax,-0x8(%rbp)
  403037:	48 83 7d f8 00       	cmpq   $0x0,-0x8(%rbp)
  40303c:	75 45                	jne    403083 <sys_open_impl+0x11a>
  40303e:	48 8b 45 c8          	mov    -0x38(%rbp),%rax
  403042:	ba 02 00 00 00       	mov    $0x2,%edx
  403047:	be 9f 21 41 00       	mov    $0x41219f,%esi
  40304c:	48 89 c7             	mov    %rax,%rdi
  40304f:	e8 78 b1 00 00       	callq  40e1cc <strncmp>
  403054:	85 c0                	test   %eax,%eax
  403056:	75 2b                	jne    403083 <sys_open_impl+0x11a>
  403058:	4c 8b 05 71 e0 01 00 	mov    0x1e071(%rip),%r8        # 4210d0 <cpio_get_file_impl>
  40305f:	48 8b 45 c8          	mov    -0x38(%rbp),%rax
  403063:	48 8d 50 02          	lea    0x2(%rax),%rdx
  403067:	48 8b 35 5a e0 01 00 	mov    0x1e05a(%rip),%rsi        # 4210c8 <cpio_archive_len>
  40306e:	48 8b 3d 4b e0 01 00 	mov    0x1e04b(%rip),%rdi        # 4210c0 <cpio_archive_symbol>
  403075:	48 8d 45 d8          	lea    -0x28(%rbp),%rax
  403079:	48 89 c1             	mov    %rax,%rcx
  40307c:	41 ff d0             	callq  *%r8
  40307f:	48 89 45 f8          	mov    %rax,-0x8(%rbp)
  403083:	48 83 7d f8 00       	cmpq   $0x0,-0x8(%rbp)
  403088:	75 4c                	jne    4030d6 <sys_open_impl+0x16d>
  40308a:	8b 05 d0 e3 01 00    	mov    0x1e3d0(%rip),%eax        # 421460 <_zf_log_output_lvl>
  403090:	83 f8 05             	cmp    $0x5,%eax
  403093:	7f 35                	jg     4030ca <sys_open_impl+0x161>
  403095:	48 83 ec 08          	sub    $0x8,%rsp
  403099:	ff 75 c8             	pushq  -0x38(%rbp)
  40309c:	41 b9 a2 21 41 00    	mov    $0x4121a2,%r9d
  4030a2:	41 b8 00 00 00 00    	mov    $0x0,%r8d
  4030a8:	b9 05 00 00 00       	mov    $0x5,%ecx
  4030ad:	ba c0 00 00 00       	mov    $0xc0,%edx
  4030b2:	be 68 20 41 00       	mov    $0x412068,%esi
  4030b7:	bf f0 22 41 00       	mov    $0x4122f0,%edi
  4030bc:	b8 00 00 00 00       	mov    $0x0,%eax
  4030c1:	e8 b9 7a 00 00       	callq  40ab7f <_zf_log_write_d>
  4030c6:	48 83 c4 10          	add    $0x10,%rsp
  4030ca:	48 c7 c0 fe ff ff ff 	mov    $0xfffffffffffffffe,%rax
  4030d1:	e9 0b 01 00 00       	jmpq   4031e1 <sys_open_impl+0x278>
  4030d6:	b8 00 00 00 00       	mov    $0x0,%eax
  4030db:	e8 da fd ff ff       	callq  402eba <allocate_fd>
  4030e0:	89 45 f4             	mov    %eax,-0xc(%rbp)
  4030e3:	83 7d f4 e8          	cmpl   $0xffffffe8,-0xc(%rbp)
  4030e7:	75 41                	jne    40312a <sys_open_impl+0x1c1>
  4030e9:	8b 05 71 e3 01 00    	mov    0x1e371(%rip),%eax        # 421460 <_zf_log_output_lvl>
  4030ef:	83 f8 05             	cmp    $0x5,%eax
  4030f2:	7f 2a                	jg     40311e <sys_open_impl+0x1b5>
  4030f4:	41 b9 ba 21 41 00    	mov    $0x4121ba,%r9d
  4030fa:	41 b8 00 00 00 00    	mov    $0x0,%r8d
  403100:	b9 05 00 00 00       	mov    $0x5,%ecx
  403105:	ba c5 00 00 00       	mov    $0xc5,%edx
  40310a:	be 68 20 41 00       	mov    $0x412068,%esi
  40310f:	bf f0 22 41 00       	mov    $0x4122f0,%edi
  403114:	b8 00 00 00 00       	mov    $0x0,%eax
  403119:	e8 61 7a 00 00       	callq  40ab7f <_zf_log_write_d>
  40311e:	48 c7 c0 e8 ff ff ff 	mov    $0xffffffffffffffe8,%rax
  403125:	e9 b7 00 00 00       	jmpq   4031e1 <sys_open_impl+0x278>
  40312a:	8b 45 f4             	mov    -0xc(%rbp),%eax
  40312d:	89 c7                	mov    %eax,%edi
  40312f:	e8 b2 fd ff ff       	callq  402ee6 <get_fd_struct>
  403134:	48 89 45 e8          	mov    %rax,-0x18(%rbp)
  403138:	48 8b 45 e8          	mov    -0x18(%rbp),%rax
  40313c:	c7 00 00 00 00 00    	movl   $0x0,(%rax)
  403142:	bf 18 00 00 00       	mov    $0x18,%edi
  403147:	e8 ea 87 00 00       	callq  40b936 <malloc>
  40314c:	48 89 c2             	mov    %rax,%rdx
  40314f:	48 8b 45 e8          	mov    -0x18(%rbp),%rax
  403153:	48 89 50 08          	mov    %rdx,0x8(%rax)
  403157:	48 8b 45 e8          	mov    -0x18(%rbp),%rax
  40315b:	48 8b 40 08          	mov    0x8(%rax),%rax
  40315f:	48 85 c0             	test   %rax,%rax
  403162:	75 48                	jne    4031ac <sys_open_impl+0x243>
  403164:	8b 05 f6 e2 01 00    	mov    0x1e2f6(%rip),%eax        # 421460 <_zf_log_output_lvl>
  40316a:	83 f8 05             	cmp    $0x5,%eax
  40316d:	7f 2a                	jg     403199 <sys_open_impl+0x230>
  40316f:	41 b9 c7 21 41 00    	mov    $0x4121c7,%r9d
  403175:	41 b8 00 00 00 00    	mov    $0x0,%r8d
  40317b:	b9 05 00 00 00       	mov    $0x5,%ecx
  403180:	ba cd 00 00 00       	mov    $0xcd,%edx
  403185:	be 68 20 41 00       	mov    $0x412068,%esi
  40318a:	bf f0 22 41 00       	mov    $0x4122f0,%edi
  40318f:	b8 00 00 00 00       	mov    $0x0,%eax
  403194:	e8 e6 79 00 00       	callq  40ab7f <_zf_log_write_d>
  403199:	8b 45 f4             	mov    -0xc(%rbp),%eax
  40319c:	89 c7                	mov    %eax,%edi
  40319e:	e8 cf f9 ff ff       	callq  402b72 <add_free_fd>
  4031a3:	48 c7 c0 f4 ff ff ff 	mov    $0xfffffffffffffff4,%rax
  4031aa:	eb 35                	jmp    4031e1 <sys_open_impl+0x278>
  4031ac:	48 8b 45 e8          	mov    -0x18(%rbp),%rax
  4031b0:	48 8b 40 08          	mov    0x8(%rax),%rax
  4031b4:	48 89 45 e0          	mov    %rax,-0x20(%rbp)
  4031b8:	48 8b 45 e0          	mov    -0x20(%rbp),%rax
  4031bc:	48 8b 55 f8          	mov    -0x8(%rbp),%rdx
  4031c0:	48 89 10             	mov    %rdx,(%rax)
  4031c3:	48 8b 45 d8          	mov    -0x28(%rbp),%rax
  4031c7:	89 c2                	mov    %eax,%edx
  4031c9:	48 8b 45 e0          	mov    -0x20(%rbp),%rax
  4031cd:	89 50 08             	mov    %edx,0x8(%rax)
  4031d0:	48 8b 45 e0          	mov    -0x20(%rbp),%rax
  4031d4:	48 c7 40 10 00 00 00 	movq   $0x0,0x10(%rax)
  4031db:	00 
  4031dc:	8b 45 f4             	mov    -0xc(%rbp),%eax
  4031df:	48 98                	cltq   
  4031e1:	c9                   	leaveq 
  4031e2:	c3                   	retq   

00000000004031e3 <sys_open>:
  4031e3:	f3 0f 1e fa          	endbr64 
  4031e7:	55                   	push   %rbp
  4031e8:	48 89 e5             	mov    %rsp,%rbp
  4031eb:	48 83 ec 20          	sub    $0x20,%rsp
  4031ef:	48 89 7d e8          	mov    %rdi,-0x18(%rbp)
  4031f3:	48 8b 45 e8          	mov    -0x18(%rbp),%rax
  4031f7:	8b 00                	mov    (%rax),%eax
  4031f9:	83 f8 2f             	cmp    $0x2f,%eax
  4031fc:	77 24                	ja     403222 <sys_open+0x3f>
  4031fe:	48 8b 45 e8          	mov    -0x18(%rbp),%rax
  403202:	48 8b 50 10          	mov    0x10(%rax),%rdx
  403206:	48 8b 45 e8          	mov    -0x18(%rbp),%rax
  40320a:	8b 00                	mov    (%rax),%eax
  40320c:	89 c0                	mov    %eax,%eax
  40320e:	48 01 d0             	add    %rdx,%rax
  403211:	48 8b 55 e8          	mov    -0x18(%rbp),%rdx
  403215:	8b 12                	mov    (%rdx),%edx
  403217:	8d 4a 08             	lea    0x8(%rdx),%ecx
  40321a:	48 8b 55 e8          	mov    -0x18(%rbp),%rdx
  40321e:	89 0a                	mov    %ecx,(%rdx)
  403220:	eb 14                	jmp    403236 <sys_open+0x53>
  403222:	48 8b 45 e8          	mov    -0x18(%rbp),%rax
  403226:	48 8b 40 08          	mov    0x8(%rax),%rax
  40322a:	48 8d 50 08          	lea    0x8(%rax),%rdx
  40322e:	48 8b 4d e8          	mov    -0x18(%rbp),%rcx
  403232:	48 89 51 08          	mov    %rdx,0x8(%rcx)
  403236:	48 8b 00             	mov    (%rax),%rax
  403239:	48 89 45 f8          	mov    %rax,-0x8(%rbp)
  40323d:	48 8b 45 e8          	mov    -0x18(%rbp),%rax
  403241:	8b 00                	mov    (%rax),%eax
  403243:	83 f8 2f             	cmp    $0x2f,%eax
  403246:	77 24                	ja     40326c <sys_open+0x89>
  403248:	48 8b 45 e8          	mov    -0x18(%rbp),%rax
  40324c:	48 8b 50 10          	mov    0x10(%rax),%rdx
  403250:	48 8b 45 e8          	mov    -0x18(%rbp),%rax
  403254:	8b 00                	mov    (%rax),%eax
  403256:	89 c0                	mov    %eax,%eax
  403258:	48 01 d0             	add    %rdx,%rax
  40325b:	48 8b 55 e8          	mov    -0x18(%rbp),%rdx
  40325f:	8b 12                	mov    (%rdx),%edx
  403261:	8d 4a 08             	lea    0x8(%rdx),%ecx
  403264:	48 8b 55 e8          	mov    -0x18(%rbp),%rdx
  403268:	89 0a                	mov    %ecx,(%rdx)
  40326a:	eb 14                	jmp    403280 <sys_open+0x9d>
  40326c:	48 8b 45 e8          	mov    -0x18(%rbp),%rax
  403270:	48 8b 40 08          	mov    0x8(%rax),%rax
  403274:	48 8d 50 08          	lea    0x8(%rax),%rdx
  403278:	48 8b 4d e8          	mov    -0x18(%rbp),%rcx
  40327c:	48 89 51 08          	mov    %rdx,0x8(%rcx)
  403280:	8b 00                	mov    (%rax),%eax
  403282:	89 45 f4             	mov    %eax,-0xc(%rbp)
  403285:	48 8b 45 e8          	mov    -0x18(%rbp),%rax
  403289:	8b 00                	mov    (%rax),%eax
  40328b:	83 f8 2f             	cmp    $0x2f,%eax
  40328e:	77 24                	ja     4032b4 <sys_open+0xd1>
  403290:	48 8b 45 e8          	mov    -0x18(%rbp),%rax
  403294:	48 8b 50 10          	mov    0x10(%rax),%rdx
  403298:	48 8b 45 e8          	mov    -0x18(%rbp),%rax
  40329c:	8b 00                	mov    (%rax),%eax
  40329e:	89 c0                	mov    %eax,%eax
  4032a0:	48 01 d0             	add    %rdx,%rax
  4032a3:	48 8b 55 e8          	mov    -0x18(%rbp),%rdx
  4032a7:	8b 12                	mov    (%rdx),%edx
  4032a9:	8d 4a 08             	lea    0x8(%rdx),%ecx
  4032ac:	48 8b 55 e8          	mov    -0x18(%rbp),%rdx
  4032b0:	89 0a                	mov    %ecx,(%rdx)
  4032b2:	eb 14                	jmp    4032c8 <sys_open+0xe5>
  4032b4:	48 8b 45 e8          	mov    -0x18(%rbp),%rax
  4032b8:	48 8b 40 08          	mov    0x8(%rax),%rax
  4032bc:	48 8d 50 08          	lea    0x8(%rax),%rdx
  4032c0:	48 8b 4d e8          	mov    -0x18(%rbp),%rcx
  4032c4:	48 89 51 08          	mov    %rdx,0x8(%rcx)
  4032c8:	8b 00                	mov    (%rax),%eax
  4032ca:	89 45 f0             	mov    %eax,-0x10(%rbp)
  4032cd:	8b 55 f0             	mov    -0x10(%rbp),%edx
  4032d0:	8b 4d f4             	mov    -0xc(%rbp),%ecx
  4032d3:	48 8b 45 f8          	mov    -0x8(%rbp),%rax
  4032d7:	89 ce                	mov    %ecx,%esi
  4032d9:	48 89 c7             	mov    %rax,%rdi
  4032dc:	e8 88 fc ff ff       	callq  402f69 <sys_open_impl>
  4032e1:	c9                   	leaveq 
  4032e2:	c3                   	retq   

00000000004032e3 <sys_openat>:
  4032e3:	f3 0f 1e fa          	endbr64 
  4032e7:	55                   	push   %rbp
  4032e8:	48 89 e5             	mov    %rsp,%rbp
  4032eb:	48 83 ec 30          	sub    $0x30,%rsp
  4032ef:	48 89 7d d8          	mov    %rdi,-0x28(%rbp)
  4032f3:	48 8b 45 d8          	mov    -0x28(%rbp),%rax
  4032f7:	8b 00                	mov    (%rax),%eax
  4032f9:	83 f8 2f             	cmp    $0x2f,%eax
  4032fc:	77 24                	ja     403322 <sys_openat+0x3f>
  4032fe:	48 8b 45 d8          	mov    -0x28(%rbp),%rax
  403302:	48 8b 50 10          	mov    0x10(%rax),%rdx
  403306:	48 8b 45 d8          	mov    -0x28(%rbp),%rax
  40330a:	8b 00                	mov    (%rax),%eax
  40330c:	89 c0                	mov    %eax,%eax
  40330e:	48 01 d0             	add    %rdx,%rax
  403311:	48 8b 55 d8          	mov    -0x28(%rbp),%rdx
  403315:	8b 12                	mov    (%rdx),%edx
  403317:	8d 4a 08             	lea    0x8(%rdx),%ecx
  40331a:	48 8b 55 d8          	mov    -0x28(%rbp),%rdx
  40331e:	89 0a                	mov    %ecx,(%rdx)
  403320:	eb 14                	jmp    403336 <sys_openat+0x53>
  403322:	48 8b 45 d8          	mov    -0x28(%rbp),%rax
  403326:	48 8b 40 08          	mov    0x8(%rax),%rax
  40332a:	48 8d 50 08          	lea    0x8(%rax),%rdx
  40332e:	48 8b 4d d8          	mov    -0x28(%rbp),%rcx
  403332:	48 89 51 08          	mov    %rdx,0x8(%rcx)
  403336:	8b 00                	mov    (%rax),%eax
  403338:	89 45 fc             	mov    %eax,-0x4(%rbp)
  40333b:	48 8b 45 d8          	mov    -0x28(%rbp),%rax
  40333f:	8b 00                	mov    (%rax),%eax
  403341:	83 f8 2f             	cmp    $0x2f,%eax
  403344:	77 24                	ja     40336a <sys_openat+0x87>
  403346:	48 8b 45 d8          	mov    -0x28(%rbp),%rax
  40334a:	48 8b 50 10          	mov    0x10(%rax),%rdx
  40334e:	48 8b 45 d8          	mov    -0x28(%rbp),%rax
  403352:	8b 00                	mov    (%rax),%eax
  403354:	89 c0                	mov    %eax,%eax
  403356:	48 01 d0             	add    %rdx,%rax
  403359:	48 8b 55 d8          	mov    -0x28(%rbp),%rdx
  40335d:	8b 12                	mov    (%rdx),%edx
  40335f:	8d 4a 08             	lea    0x8(%rdx),%ecx
  403362:	48 8b 55 d8          	mov    -0x28(%rbp),%rdx
  403366:	89 0a                	mov    %ecx,(%rdx)
  403368:	eb 14                	jmp    40337e <sys_openat+0x9b>
  40336a:	48 8b 45 d8          	mov    -0x28(%rbp),%rax
  40336e:	48 8b 40 08          	mov    0x8(%rax),%rax
  403372:	48 8d 50 08          	lea    0x8(%rax),%rdx
  403376:	48 8b 4d d8          	mov    -0x28(%rbp),%rcx
  40337a:	48 89 51 08          	mov    %rdx,0x8(%rcx)
  40337e:	48 8b 00             	mov    (%rax),%rax
  403381:	48 89 45 f0          	mov    %rax,-0x10(%rbp)
  403385:	48 8b 45 d8          	mov    -0x28(%rbp),%rax
  403389:	8b 00                	mov    (%rax),%eax
  40338b:	83 f8 2f             	cmp    $0x2f,%eax
  40338e:	77 24                	ja     4033b4 <sys_openat+0xd1>
  403390:	48 8b 45 d8          	mov    -0x28(%rbp),%rax
  403394:	48 8b 50 10          	mov    0x10(%rax),%rdx
  403398:	48 8b 45 d8          	mov    -0x28(%rbp),%rax
  40339c:	8b 00                	mov    (%rax),%eax
  40339e:	89 c0                	mov    %eax,%eax
  4033a0:	48 01 d0             	add    %rdx,%rax
  4033a3:	48 8b 55 d8          	mov    -0x28(%rbp),%rdx
  4033a7:	8b 12                	mov    (%rdx),%edx
  4033a9:	8d 4a 08             	lea    0x8(%rdx),%ecx
  4033ac:	48 8b 55 d8          	mov    -0x28(%rbp),%rdx
  4033b0:	89 0a                	mov    %ecx,(%rdx)
  4033b2:	eb 14                	jmp    4033c8 <sys_openat+0xe5>
  4033b4:	48 8b 45 d8          	mov    -0x28(%rbp),%rax
  4033b8:	48 8b 40 08          	mov    0x8(%rax),%rax
  4033bc:	48 8d 50 08          	lea    0x8(%rax),%rdx
  4033c0:	48 8b 4d d8          	mov    -0x28(%rbp),%rcx
  4033c4:	48 89 51 08          	mov    %rdx,0x8(%rcx)
  4033c8:	8b 00                	mov    (%rax),%eax
  4033ca:	89 45 ec             	mov    %eax,-0x14(%rbp)
  4033cd:	48 8b 45 d8          	mov    -0x28(%rbp),%rax
  4033d1:	8b 00                	mov    (%rax),%eax
  4033d3:	83 f8 2f             	cmp    $0x2f,%eax
  4033d6:	77 24                	ja     4033fc <sys_openat+0x119>
  4033d8:	48 8b 45 d8          	mov    -0x28(%rbp),%rax
  4033dc:	48 8b 50 10          	mov    0x10(%rax),%rdx
  4033e0:	48 8b 45 d8          	mov    -0x28(%rbp),%rax
  4033e4:	8b 00                	mov    (%rax),%eax
  4033e6:	89 c0                	mov    %eax,%eax
  4033e8:	48 01 d0             	add    %rdx,%rax
  4033eb:	48 8b 55 d8          	mov    -0x28(%rbp),%rdx
  4033ef:	8b 12                	mov    (%rdx),%edx
  4033f1:	8d 4a 08             	lea    0x8(%rdx),%ecx
  4033f4:	48 8b 55 d8          	mov    -0x28(%rbp),%rdx
  4033f8:	89 0a                	mov    %ecx,(%rdx)
  4033fa:	eb 14                	jmp    403410 <sys_openat+0x12d>
  4033fc:	48 8b 45 d8          	mov    -0x28(%rbp),%rax
  403400:	48 8b 40 08          	mov    0x8(%rax),%rax
  403404:	48 8d 50 08          	lea    0x8(%rax),%rdx
  403408:	48 8b 4d d8          	mov    -0x28(%rbp),%rcx
  40340c:	48 89 51 08          	mov    %rdx,0x8(%rcx)
  403410:	8b 00                	mov    (%rax),%eax
  403412:	89 45 e8             	mov    %eax,-0x18(%rbp)
  403415:	83 7d fc 9c          	cmpl   $0xffffff9c,-0x4(%rbp)
  403419:	74 3e                	je     403459 <sys_openat+0x176>
  40341b:	8b 05 3f e0 01 00    	mov    0x1e03f(%rip),%eax        # 421460 <_zf_log_output_lvl>
  403421:	83 f8 05             	cmp    $0x5,%eax
  403424:	7f 2a                	jg     403450 <sys_openat+0x16d>
  403426:	41 b9 d8 21 41 00    	mov    $0x4121d8,%r9d
  40342c:	41 b8 00 00 00 00    	mov    $0x0,%r8d
  403432:	b9 05 00 00 00       	mov    $0x5,%ecx
  403437:	ba e9 00 00 00       	mov    $0xe9,%edx
  40343c:	be 68 20 41 00       	mov    $0x412068,%esi
  403441:	bf 00 23 41 00       	mov    $0x412300,%edi
  403446:	b8 00 00 00 00       	mov    $0x0,%eax
  40344b:	e8 2f 77 00 00       	callq  40ab7f <_zf_log_write_d>
  403450:	48 c7 c0 ea ff ff ff 	mov    $0xffffffffffffffea,%rax
  403457:	eb 14                	jmp    40346d <sys_openat+0x18a>
  403459:	8b 55 e8             	mov    -0x18(%rbp),%edx
  40345c:	8b 4d ec             	mov    -0x14(%rbp),%ecx
  40345f:	48 8b 45 f0          	mov    -0x10(%rbp),%rax
  403463:	89 ce                	mov    %ecx,%esi
  403465:	48 89 c7             	mov    %rax,%rdi
  403468:	e8 fc fa ff ff       	callq  402f69 <sys_open_impl>
  40346d:	c9                   	leaveq 
  40346e:	c3                   	retq   

000000000040346f <sys_close>:
  40346f:	f3 0f 1e fa          	endbr64 
  403473:	55                   	push   %rbp
  403474:	48 89 e5             	mov    %rsp,%rbp
  403477:	48 83 ec 20          	sub    $0x20,%rsp
  40347b:	48 89 7d e8          	mov    %rdi,-0x18(%rbp)
  40347f:	48 8b 45 e8          	mov    -0x18(%rbp),%rax
  403483:	8b 00                	mov    (%rax),%eax
  403485:	83 f8 2f             	cmp    $0x2f,%eax
  403488:	77 24                	ja     4034ae <sys_close+0x3f>
  40348a:	48 8b 45 e8          	mov    -0x18(%rbp),%rax
  40348e:	48 8b 50 10          	mov    0x10(%rax),%rdx
  403492:	48 8b 45 e8          	mov    -0x18(%rbp),%rax
  403496:	8b 00                	mov    (%rax),%eax
  403498:	89 c0                	mov    %eax,%eax
  40349a:	48 01 d0             	add    %rdx,%rax
  40349d:	48 8b 55 e8          	mov    -0x18(%rbp),%rdx
  4034a1:	8b 12                	mov    (%rdx),%edx
  4034a3:	8d 4a 08             	lea    0x8(%rdx),%ecx
  4034a6:	48 8b 55 e8          	mov    -0x18(%rbp),%rdx
  4034aa:	89 0a                	mov    %ecx,(%rdx)
  4034ac:	eb 14                	jmp    4034c2 <sys_close+0x53>
  4034ae:	48 8b 45 e8          	mov    -0x18(%rbp),%rax
  4034b2:	48 8b 40 08          	mov    0x8(%rax),%rax
  4034b6:	48 8d 50 08          	lea    0x8(%rax),%rdx
  4034ba:	48 8b 4d e8          	mov    -0x18(%rbp),%rcx
  4034be:	48 89 51 08          	mov    %rdx,0x8(%rcx)
  4034c2:	8b 00                	mov    (%rax),%eax
  4034c4:	89 45 fc             	mov    %eax,-0x4(%rbp)
  4034c7:	83 7d fc 02          	cmpl   $0x2,-0x4(%rbp)
  4034cb:	7f 19                	jg     4034e6 <sys_close+0x77>
  4034cd:	b9 10 23 41 00       	mov    $0x412310,%ecx
  4034d2:	ba f4 00 00 00       	mov    $0xf4,%edx
  4034d7:	be 68 20 41 00       	mov    $0x412068,%esi
  4034dc:	bf 1d 22 41 00       	mov    $0x41221d,%edi
  4034e1:	e8 1e 7e 00 00       	callq  40b304 <__assert_fail>
  4034e6:	8b 45 fc             	mov    -0x4(%rbp),%eax
  4034e9:	89 c7                	mov    %eax,%edi
  4034eb:	e8 3e f7 ff ff       	callq  402c2e <valid_fd>
  4034f0:	85 c0                	test   %eax,%eax
  4034f2:	75 09                	jne    4034fd <sys_close+0x8e>
  4034f4:	48 c7 c0 f7 ff ff ff 	mov    $0xfffffffffffffff7,%rax
  4034fb:	eb 37                	jmp    403534 <sys_close+0xc5>
  4034fd:	8b 45 fc             	mov    -0x4(%rbp),%eax
  403500:	89 c7                	mov    %eax,%edi
  403502:	e8 df f9 ff ff       	callq  402ee6 <get_fd_struct>
  403507:	48 89 45 f0          	mov    %rax,-0x10(%rbp)
  40350b:	48 8b 45 f0          	mov    -0x10(%rbp),%rax
  40350f:	8b 00                	mov    (%rax),%eax
  403511:	85 c0                	test   %eax,%eax
  403513:	75 10                	jne    403525 <sys_close+0xb6>
  403515:	48 8b 45 f0          	mov    -0x10(%rbp),%rax
  403519:	48 8b 40 08          	mov    0x8(%rax),%rax
  40351d:	48 89 c7             	mov    %rax,%rdi
  403520:	e8 dd 81 00 00       	callq  40b702 <free>
  403525:	8b 45 fc             	mov    -0x4(%rbp),%eax
  403528:	89 c7                	mov    %eax,%edi
  40352a:	e8 43 f6 ff ff       	callq  402b72 <add_free_fd>
  40352f:	b8 00 00 00 00       	mov    $0x0,%eax
  403534:	c9                   	leaveq 
  403535:	c3                   	retq   

0000000000403536 <sel4muslcsys_register_stdio_write_fn>:
  403536:	f3 0f 1e fa          	endbr64 
  40353a:	55                   	push   %rbp
  40353b:	48 89 e5             	mov    %rsp,%rbp
  40353e:	48 89 7d e8          	mov    %rdi,-0x18(%rbp)
  403542:	48 8b 05 c7 3a 01 00 	mov    0x13ac7(%rip),%rax        # 417010 <stdio_write>
  403549:	48 89 45 f8          	mov    %rax,-0x8(%rbp)
  40354d:	48 8b 45 e8          	mov    -0x18(%rbp),%rax
  403551:	48 89 05 b8 3a 01 00 	mov    %rax,0x13ab8(%rip)        # 417010 <stdio_write>
  403558:	48 8b 45 f8          	mov    -0x8(%rbp),%rax
  40355c:	5d                   	pop    %rbp
  40355d:	c3                   	retq   

000000000040355e <sys_writev>:
  40355e:	f3 0f 1e fa          	endbr64 
  403562:	55                   	push   %rbp
  403563:	48 89 e5             	mov    %rsp,%rbp
  403566:	48 83 ec 40          	sub    $0x40,%rsp
  40356a:	48 89 7d c8          	mov    %rdi,-0x38(%rbp)
  40356e:	48 8b 45 c8          	mov    -0x38(%rbp),%rax
  403572:	8b 00                	mov    (%rax),%eax
  403574:	83 f8 2f             	cmp    $0x2f,%eax
  403577:	77 24                	ja     40359d <sys_writev+0x3f>
  403579:	48 8b 45 c8          	mov    -0x38(%rbp),%rax
  40357d:	48 8b 50 10          	mov    0x10(%rax),%rdx
  403581:	48 8b 45 c8          	mov    -0x38(%rbp),%rax
  403585:	8b 00                	mov    (%rax),%eax
  403587:	89 c0                	mov    %eax,%eax
  403589:	48 01 d0             	add    %rdx,%rax
  40358c:	48 8b 55 c8          	mov    -0x38(%rbp),%rdx
  403590:	8b 12                	mov    (%rdx),%edx
  403592:	8d 4a 08             	lea    0x8(%rdx),%ecx
  403595:	48 8b 55 c8          	mov    -0x38(%rbp),%rdx
  403599:	89 0a                	mov    %ecx,(%rdx)
  40359b:	eb 14                	jmp    4035b1 <sys_writev+0x53>
  40359d:	48 8b 45 c8          	mov    -0x38(%rbp),%rax
  4035a1:	48 8b 40 08          	mov    0x8(%rax),%rax
  4035a5:	48 8d 50 08          	lea    0x8(%rax),%rdx
  4035a9:	48 8b 4d c8          	mov    -0x38(%rbp),%rcx
  4035ad:	48 89 51 08          	mov    %rdx,0x8(%rcx)
  4035b1:	8b 00                	mov    (%rax),%eax
  4035b3:	89 45 e4             	mov    %eax,-0x1c(%rbp)
  4035b6:	48 8b 45 c8          	mov    -0x38(%rbp),%rax
  4035ba:	8b 00                	mov    (%rax),%eax
  4035bc:	83 f8 2f             	cmp    $0x2f,%eax
  4035bf:	77 24                	ja     4035e5 <sys_writev+0x87>
  4035c1:	48 8b 45 c8          	mov    -0x38(%rbp),%rax
  4035c5:	48 8b 50 10          	mov    0x10(%rax),%rdx
  4035c9:	48 8b 45 c8          	mov    -0x38(%rbp),%rax
  4035cd:	8b 00                	mov    (%rax),%eax
  4035cf:	89 c0                	mov    %eax,%eax
  4035d1:	48 01 d0             	add    %rdx,%rax
  4035d4:	48 8b 55 c8          	mov    -0x38(%rbp),%rdx
  4035d8:	8b 12                	mov    (%rdx),%edx
  4035da:	8d 4a 08             	lea    0x8(%rdx),%ecx
  4035dd:	48 8b 55 c8          	mov    -0x38(%rbp),%rdx
  4035e1:	89 0a                	mov    %ecx,(%rdx)
  4035e3:	eb 14                	jmp    4035f9 <sys_writev+0x9b>
  4035e5:	48 8b 45 c8          	mov    -0x38(%rbp),%rax
  4035e9:	48 8b 40 08          	mov    0x8(%rax),%rax
  4035ed:	48 8d 50 08          	lea    0x8(%rax),%rdx
  4035f1:	48 8b 4d c8          	mov    -0x38(%rbp),%rcx
  4035f5:	48 89 51 08          	mov    %rdx,0x8(%rcx)
  4035f9:	48 8b 00             	mov    (%rax),%rax
  4035fc:	48 89 45 d8          	mov    %rax,-0x28(%rbp)
  403600:	48 8b 45 c8          	mov    -0x38(%rbp),%rax
  403604:	8b 00                	mov    (%rax),%eax
  403606:	83 f8 2f             	cmp    $0x2f,%eax
  403609:	77 24                	ja     40362f <sys_writev+0xd1>
  40360b:	48 8b 45 c8          	mov    -0x38(%rbp),%rax
  40360f:	48 8b 50 10          	mov    0x10(%rax),%rdx
  403613:	48 8b 45 c8          	mov    -0x38(%rbp),%rax
  403617:	8b 00                	mov    (%rax),%eax
  403619:	89 c0                	mov    %eax,%eax
  40361b:	48 01 d0             	add    %rdx,%rax
  40361e:	48 8b 55 c8          	mov    -0x38(%rbp),%rdx
  403622:	8b 12                	mov    (%rdx),%edx
  403624:	8d 4a 08             	lea    0x8(%rdx),%ecx
  403627:	48 8b 55 c8          	mov    -0x38(%rbp),%rdx
  40362b:	89 0a                	mov    %ecx,(%rdx)
  40362d:	eb 14                	jmp    403643 <sys_writev+0xe5>
  40362f:	48 8b 45 c8          	mov    -0x38(%rbp),%rax
  403633:	48 8b 40 08          	mov    0x8(%rax),%rax
  403637:	48 8d 50 08          	lea    0x8(%rax),%rdx
  40363b:	48 8b 4d c8          	mov    -0x38(%rbp),%rcx
  40363f:	48 89 51 08          	mov    %rdx,0x8(%rcx)
  403643:	8b 00                	mov    (%rax),%eax
  403645:	89 45 d4             	mov    %eax,-0x2c(%rbp)
  403648:	48 c7 45 f8 00 00 00 	movq   $0x0,-0x8(%rbp)
  40364f:	00 
  403650:	48 c7 45 f0 00 00 00 	movq   $0x0,-0x10(%rbp)
  403657:	00 
  403658:	83 7d d4 00          	cmpl   $0x0,-0x2c(%rbp)
  40365c:	7e 09                	jle    403667 <sys_writev+0x109>
  40365e:	81 7d d4 00 04 00 00 	cmpl   $0x400,-0x2c(%rbp)
  403665:	7e 0c                	jle    403673 <sys_writev+0x115>
  403667:	48 c7 c0 ea ff ff ff 	mov    $0xffffffffffffffea,%rax
  40366e:	e9 00 01 00 00       	jmpq   403773 <sys_writev+0x215>
  403673:	c7 45 ec 00 00 00 00 	movl   $0x0,-0x14(%rbp)
  40367a:	eb 1f                	jmp    40369b <sys_writev+0x13d>
  40367c:	8b 45 ec             	mov    -0x14(%rbp),%eax
  40367f:	48 98                	cltq   
  403681:	48 c1 e0 04          	shl    $0x4,%rax
  403685:	48 89 c2             	mov    %rax,%rdx
  403688:	48 8b 45 d8          	mov    -0x28(%rbp),%rax
  40368c:	48 01 d0             	add    %rdx,%rax
  40368f:	48 8b 40 08          	mov    0x8(%rax),%rax
  403693:	48 01 45 f8          	add    %rax,-0x8(%rbp)
  403697:	83 45 ec 01          	addl   $0x1,-0x14(%rbp)
  40369b:	8b 45 ec             	mov    -0x14(%rbp),%eax
  40369e:	3b 45 d4             	cmp    -0x2c(%rbp),%eax
  4036a1:	7c d9                	jl     40367c <sys_writev+0x11e>
  4036a3:	48 83 7d f8 00       	cmpq   $0x0,-0x8(%rbp)
  4036a8:	75 0a                	jne    4036b4 <sys_writev+0x156>
  4036aa:	b8 00 00 00 00       	mov    $0x0,%eax
  4036af:	e9 bf 00 00 00       	jmpq   403773 <sys_writev+0x215>
  4036b4:	83 7d e4 01          	cmpl   $0x1,-0x1c(%rbp)
  4036b8:	74 0a                	je     4036c4 <sys_writev+0x166>
  4036ba:	83 7d e4 02          	cmpl   $0x2,-0x1c(%rbp)
  4036be:	0f 85 92 00 00 00    	jne    403756 <sys_writev+0x1f8>
  4036c4:	c7 45 e8 00 00 00 00 	movl   $0x0,-0x18(%rbp)
  4036cb:	eb 7b                	jmp    403748 <sys_writev+0x1ea>
  4036cd:	48 8b 05 3c 39 01 00 	mov    0x1393c(%rip),%rax        # 417010 <stdio_write>
  4036d4:	48 85 c0             	test   %rax,%rax
  4036d7:	75 24                	jne    4036fd <sys_writev+0x19f>
  4036d9:	8b 45 e8             	mov    -0x18(%rbp),%eax
  4036dc:	48 98                	cltq   
  4036de:	48 c1 e0 04          	shl    $0x4,%rax
  4036e2:	48 89 c2             	mov    %rax,%rdx
  4036e5:	48 8b 45 d8          	mov    -0x28(%rbp),%rax
  4036e9:	48 01 d0             	add    %rdx,%rax
  4036ec:	48 8b 50 08          	mov    0x8(%rax),%rdx
  4036f0:	48 8b 45 f0          	mov    -0x10(%rbp),%rax
  4036f4:	48 01 d0             	add    %rdx,%rax
  4036f7:	48 89 45 f0          	mov    %rax,-0x10(%rbp)
  4036fb:	eb 47                	jmp    403744 <sys_writev+0x1e6>
  4036fd:	48 8b 0d 0c 39 01 00 	mov    0x1390c(%rip),%rcx        # 417010 <stdio_write>
  403704:	8b 45 e8             	mov    -0x18(%rbp),%eax
  403707:	48 98                	cltq   
  403709:	48 c1 e0 04          	shl    $0x4,%rax
  40370d:	48 89 c2             	mov    %rax,%rdx
  403710:	48 8b 45 d8          	mov    -0x28(%rbp),%rax
  403714:	48 01 d0             	add    %rdx,%rax
  403717:	48 8b 50 08          	mov    0x8(%rax),%rdx
  40371b:	8b 45 e8             	mov    -0x18(%rbp),%eax
  40371e:	48 98                	cltq   
  403720:	48 c1 e0 04          	shl    $0x4,%rax
  403724:	48 89 c6             	mov    %rax,%rsi
  403727:	48 8b 45 d8          	mov    -0x28(%rbp),%rax
  40372b:	48 01 f0             	add    %rsi,%rax
  40372e:	48 8b 00             	mov    (%rax),%rax
  403731:	48 89 d6             	mov    %rdx,%rsi
  403734:	48 89 c7             	mov    %rax,%rdi
  403737:	ff d1                	callq  *%rcx
  403739:	48 8b 55 f0          	mov    -0x10(%rbp),%rdx
  40373d:	48 01 d0             	add    %rdx,%rax
  403740:	48 89 45 f0          	mov    %rax,-0x10(%rbp)
  403744:	83 45 e8 01          	addl   $0x1,-0x18(%rbp)
  403748:	8b 45 e8             	mov    -0x18(%rbp),%eax
  40374b:	3b 45 d4             	cmp    -0x2c(%rbp),%eax
  40374e:	0f 8c 79 ff ff ff    	jl     4036cd <sys_writev+0x16f>
  403754:	eb 19                	jmp    40376f <sys_writev+0x211>
  403756:	b9 20 23 41 00       	mov    $0x412320,%ecx
  40375b:	ba 3a 01 00 00       	mov    $0x13a,%edx
  403760:	be 68 20 41 00       	mov    $0x412068,%esi
  403765:	bf 30 22 41 00       	mov    $0x412230,%edi
  40376a:	e8 95 7b 00 00       	callq  40b304 <__assert_fail>
  40376f:	48 8b 45 f0          	mov    -0x10(%rbp),%rax
  403773:	c9                   	leaveq 
  403774:	c3                   	retq   

0000000000403775 <sys_write>:
  403775:	f3 0f 1e fa          	endbr64 
  403779:	55                   	push   %rbp
  40377a:	48 89 e5             	mov    %rsp,%rbp
  40377d:	48 83 ec 40          	sub    $0x40,%rsp
  403781:	48 89 7d c8          	mov    %rdi,-0x38(%rbp)
  403785:	48 8b 45 c8          	mov    -0x38(%rbp),%rax
  403789:	8b 00                	mov    (%rax),%eax
  40378b:	83 f8 2f             	cmp    $0x2f,%eax
  40378e:	77 24                	ja     4037b4 <sys_write+0x3f>
  403790:	48 8b 45 c8          	mov    -0x38(%rbp),%rax
  403794:	48 8b 50 10          	mov    0x10(%rax),%rdx
  403798:	48 8b 45 c8          	mov    -0x38(%rbp),%rax
  40379c:	8b 00                	mov    (%rax),%eax
  40379e:	89 c0                	mov    %eax,%eax
  4037a0:	48 01 d0             	add    %rdx,%rax
  4037a3:	48 8b 55 c8          	mov    -0x38(%rbp),%rdx
  4037a7:	8b 12                	mov    (%rdx),%edx
  4037a9:	8d 4a 08             	lea    0x8(%rdx),%ecx
  4037ac:	48 8b 55 c8          	mov    -0x38(%rbp),%rdx
  4037b0:	89 0a                	mov    %ecx,(%rdx)
  4037b2:	eb 14                	jmp    4037c8 <sys_write+0x53>
  4037b4:	48 8b 45 c8          	mov    -0x38(%rbp),%rax
  4037b8:	48 8b 40 08          	mov    0x8(%rax),%rax
  4037bc:	48 8d 50 08          	lea    0x8(%rax),%rdx
  4037c0:	48 8b 4d c8          	mov    -0x38(%rbp),%rcx
  4037c4:	48 89 51 08          	mov    %rdx,0x8(%rcx)
  4037c8:	8b 00                	mov    (%rax),%eax
  4037ca:	89 45 fc             	mov    %eax,-0x4(%rbp)
  4037cd:	48 8b 45 c8          	mov    -0x38(%rbp),%rax
  4037d1:	8b 00                	mov    (%rax),%eax
  4037d3:	83 f8 2f             	cmp    $0x2f,%eax
  4037d6:	77 24                	ja     4037fc <sys_write+0x87>
  4037d8:	48 8b 45 c8          	mov    -0x38(%rbp),%rax
  4037dc:	48 8b 50 10          	mov    0x10(%rax),%rdx
  4037e0:	48 8b 45 c8          	mov    -0x38(%rbp),%rax
  4037e4:	8b 00                	mov    (%rax),%eax
  4037e6:	89 c0                	mov    %eax,%eax
  4037e8:	48 01 d0             	add    %rdx,%rax
  4037eb:	48 8b 55 c8          	mov    -0x38(%rbp),%rdx
  4037ef:	8b 12                	mov    (%rdx),%edx
  4037f1:	8d 4a 08             	lea    0x8(%rdx),%ecx
  4037f4:	48 8b 55 c8          	mov    -0x38(%rbp),%rdx
  4037f8:	89 0a                	mov    %ecx,(%rdx)
  4037fa:	eb 14                	jmp    403810 <sys_write+0x9b>
  4037fc:	48 8b 45 c8          	mov    -0x38(%rbp),%rax
  403800:	48 8b 40 08          	mov    0x8(%rax),%rax
  403804:	48 8d 50 08          	lea    0x8(%rax),%rdx
  403808:	48 8b 4d c8          	mov    -0x38(%rbp),%rcx
  40380c:	48 89 51 08          	mov    %rdx,0x8(%rcx)
  403810:	48 8b 00             	mov    (%rax),%rax
  403813:	48 89 45 f0          	mov    %rax,-0x10(%rbp)
  403817:	48 8b 45 c8          	mov    -0x38(%rbp),%rax
  40381b:	8b 00                	mov    (%rax),%eax
  40381d:	83 f8 2f             	cmp    $0x2f,%eax
  403820:	77 24                	ja     403846 <sys_write+0xd1>
  403822:	48 8b 45 c8          	mov    -0x38(%rbp),%rax
  403826:	48 8b 50 10          	mov    0x10(%rax),%rdx
  40382a:	48 8b 45 c8          	mov    -0x38(%rbp),%rax
  40382e:	8b 00                	mov    (%rax),%eax
  403830:	89 c0                	mov    %eax,%eax
  403832:	48 01 d0             	add    %rdx,%rax
  403835:	48 8b 55 c8          	mov    -0x38(%rbp),%rdx
  403839:	8b 12                	mov    (%rdx),%edx
  40383b:	8d 4a 08             	lea    0x8(%rdx),%ecx
  40383e:	48 8b 55 c8          	mov    -0x38(%rbp),%rdx
  403842:	89 0a                	mov    %ecx,(%rdx)
  403844:	eb 14                	jmp    40385a <sys_write+0xe5>
  403846:	48 8b 45 c8          	mov    -0x38(%rbp),%rax
  40384a:	48 8b 40 08          	mov    0x8(%rax),%rax
  40384e:	48 8d 50 08          	lea    0x8(%rax),%rdx
  403852:	48 8b 4d c8          	mov    -0x38(%rbp),%rcx
  403856:	48 89 51 08          	mov    %rdx,0x8(%rcx)
  40385a:	48 8b 00             	mov    (%rax),%rax
  40385d:	48 89 45 e8          	mov    %rax,-0x18(%rbp)
  403861:	48 8b 45 f0          	mov    -0x10(%rbp),%rax
  403865:	48 89 45 d0          	mov    %rax,-0x30(%rbp)
  403869:	48 8b 45 e8          	mov    -0x18(%rbp),%rax
  40386d:	48 89 45 d8          	mov    %rax,-0x28(%rbp)
  403871:	48 8d 45 d0          	lea    -0x30(%rbp),%rax
  403875:	8b 4d fc             	mov    -0x4(%rbp),%ecx
  403878:	ba 01 00 00 00       	mov    $0x1,%edx
  40387d:	48 89 c6             	mov    %rax,%rsi
  403880:	89 cf                	mov    %ecx,%edi
  403882:	e8 8f ac 00 00       	callq  40e516 <writev>
  403887:	c9                   	leaveq 
  403888:	c3                   	retq   

0000000000403889 <sys_readv>:
  403889:	f3 0f 1e fa          	endbr64 
  40388d:	55                   	push   %rbp
  40388e:	48 89 e5             	mov    %rsp,%rbp
  403891:	48 83 ec 60          	sub    $0x60,%rsp
  403895:	48 89 7d a8          	mov    %rdi,-0x58(%rbp)
  403899:	48 8b 45 a8          	mov    -0x58(%rbp),%rax
  40389d:	8b 00                	mov    (%rax),%eax
  40389f:	83 f8 2f             	cmp    $0x2f,%eax
  4038a2:	77 24                	ja     4038c8 <sys_readv+0x3f>
  4038a4:	48 8b 45 a8          	mov    -0x58(%rbp),%rax
  4038a8:	48 8b 50 10          	mov    0x10(%rax),%rdx
  4038ac:	48 8b 45 a8          	mov    -0x58(%rbp),%rax
  4038b0:	8b 00                	mov    (%rax),%eax
  4038b2:	89 c0                	mov    %eax,%eax
  4038b4:	48 01 d0             	add    %rdx,%rax
  4038b7:	48 8b 55 a8          	mov    -0x58(%rbp),%rdx
  4038bb:	8b 12                	mov    (%rdx),%edx
  4038bd:	8d 4a 08             	lea    0x8(%rdx),%ecx
  4038c0:	48 8b 55 a8          	mov    -0x58(%rbp),%rdx
  4038c4:	89 0a                	mov    %ecx,(%rdx)
  4038c6:	eb 14                	jmp    4038dc <sys_readv+0x53>
  4038c8:	48 8b 45 a8          	mov    -0x58(%rbp),%rax
  4038cc:	48 8b 40 08          	mov    0x8(%rax),%rax
  4038d0:	48 8d 50 08          	lea    0x8(%rax),%rdx
  4038d4:	48 8b 4d a8          	mov    -0x58(%rbp),%rcx
  4038d8:	48 89 51 08          	mov    %rdx,0x8(%rcx)
  4038dc:	8b 00                	mov    (%rax),%eax
  4038de:	89 45 ec             	mov    %eax,-0x14(%rbp)
  4038e1:	48 8b 45 a8          	mov    -0x58(%rbp),%rax
  4038e5:	8b 00                	mov    (%rax),%eax
  4038e7:	83 f8 2f             	cmp    $0x2f,%eax
  4038ea:	77 24                	ja     403910 <sys_readv+0x87>
  4038ec:	48 8b 45 a8          	mov    -0x58(%rbp),%rax
  4038f0:	48 8b 50 10          	mov    0x10(%rax),%rdx
  4038f4:	48 8b 45 a8          	mov    -0x58(%rbp),%rax
  4038f8:	8b 00                	mov    (%rax),%eax
  4038fa:	89 c0                	mov    %eax,%eax
  4038fc:	48 01 d0             	add    %rdx,%rax
  4038ff:	48 8b 55 a8          	mov    -0x58(%rbp),%rdx
  403903:	8b 12                	mov    (%rdx),%edx
  403905:	8d 4a 08             	lea    0x8(%rdx),%ecx
  403908:	48 8b 55 a8          	mov    -0x58(%rbp),%rdx
  40390c:	89 0a                	mov    %ecx,(%rdx)
  40390e:	eb 14                	jmp    403924 <sys_readv+0x9b>
  403910:	48 8b 45 a8          	mov    -0x58(%rbp),%rax
  403914:	48 8b 40 08          	mov    0x8(%rax),%rax
  403918:	48 8d 50 08          	lea    0x8(%rax),%rdx
  40391c:	48 8b 4d a8          	mov    -0x58(%rbp),%rcx
  403920:	48 89 51 08          	mov    %rdx,0x8(%rcx)
  403924:	48 8b 00             	mov    (%rax),%rax
  403927:	48 89 45 e0          	mov    %rax,-0x20(%rbp)
  40392b:	48 8b 45 a8          	mov    -0x58(%rbp),%rax
  40392f:	8b 00                	mov    (%rax),%eax
  403931:	83 f8 2f             	cmp    $0x2f,%eax
  403934:	77 24                	ja     40395a <sys_readv+0xd1>
  403936:	48 8b 45 a8          	mov    -0x58(%rbp),%rax
  40393a:	48 8b 50 10          	mov    0x10(%rax),%rdx
  40393e:	48 8b 45 a8          	mov    -0x58(%rbp),%rax
  403942:	8b 00                	mov    (%rax),%eax
  403944:	89 c0                	mov    %eax,%eax
  403946:	48 01 d0             	add    %rdx,%rax
  403949:	48 8b 55 a8          	mov    -0x58(%rbp),%rdx
  40394d:	8b 12                	mov    (%rdx),%edx
  40394f:	8d 4a 08             	lea    0x8(%rdx),%ecx
  403952:	48 8b 55 a8          	mov    -0x58(%rbp),%rdx
  403956:	89 0a                	mov    %ecx,(%rdx)
  403958:	eb 14                	jmp    40396e <sys_readv+0xe5>
  40395a:	48 8b 45 a8          	mov    -0x58(%rbp),%rax
  40395e:	48 8b 40 08          	mov    0x8(%rax),%rax
  403962:	48 8d 50 08          	lea    0x8(%rax),%rdx
  403966:	48 8b 4d a8          	mov    -0x58(%rbp),%rcx
  40396a:	48 89 51 08          	mov    %rdx,0x8(%rcx)
  40396e:	8b 00                	mov    (%rax),%eax
  403970:	89 45 dc             	mov    %eax,-0x24(%rbp)
  403973:	83 7d ec 02          	cmpl   $0x2,-0x14(%rbp)
  403977:	7f 19                	jg     403992 <sys_readv+0x109>
  403979:	b9 30 23 41 00       	mov    $0x412330,%ecx
  40397e:	ba 54 01 00 00       	mov    $0x154,%edx
  403983:	be 68 20 41 00       	mov    $0x412068,%esi
  403988:	bf 1d 22 41 00       	mov    $0x41221d,%edi
  40398d:	e8 72 79 00 00       	callq  40b304 <__assert_fail>
  403992:	8b 45 ec             	mov    -0x14(%rbp),%eax
  403995:	89 c7                	mov    %eax,%edi
  403997:	e8 92 f2 ff ff       	callq  402c2e <valid_fd>
  40399c:	85 c0                	test   %eax,%eax
  40399e:	75 0c                	jne    4039ac <sys_readv+0x123>
  4039a0:	48 c7 c0 f7 ff ff ff 	mov    $0xfffffffffffffff7,%rax
  4039a7:	e9 12 01 00 00       	jmpq   403abe <sys_readv+0x235>
  4039ac:	8b 45 ec             	mov    -0x14(%rbp),%eax
  4039af:	89 c7                	mov    %eax,%edi
  4039b1:	e8 30 f5 ff ff       	callq  402ee6 <get_fd_struct>
  4039b6:	48 89 45 d0          	mov    %rax,-0x30(%rbp)
  4039ba:	48 8b 45 d0          	mov    -0x30(%rbp),%rax
  4039be:	8b 00                	mov    (%rax),%eax
  4039c0:	85 c0                	test   %eax,%eax
  4039c2:	74 19                	je     4039dd <sys_readv+0x154>
  4039c4:	b9 30 23 41 00       	mov    $0x412330,%ecx
  4039c9:	ba 61 01 00 00       	mov    $0x161,%edx
  4039ce:	be 68 20 41 00       	mov    $0x412068,%esi
  4039d3:	bf 1d 22 41 00       	mov    $0x41221d,%edi
  4039d8:	e8 27 79 00 00       	callq  40b304 <__assert_fail>
  4039dd:	48 8b 45 d0          	mov    -0x30(%rbp),%rax
  4039e1:	48 8b 40 08          	mov    0x8(%rax),%rax
  4039e5:	48 89 45 c8          	mov    %rax,-0x38(%rbp)
  4039e9:	48 c7 45 f0 00 00 00 	movq   $0x0,-0x10(%rbp)
  4039f0:	00 
  4039f1:	c7 45 fc 00 00 00 00 	movl   $0x0,-0x4(%rbp)
  4039f8:	e9 9b 00 00 00       	jmpq   403a98 <sys_readv+0x20f>
  4039fd:	48 8b 45 c8          	mov    -0x38(%rbp),%rax
  403a01:	8b 40 08             	mov    0x8(%rax),%eax
  403a04:	89 c2                	mov    %eax,%edx
  403a06:	48 8b 45 c8          	mov    -0x38(%rbp),%rax
  403a0a:	48 8b 40 10          	mov    0x10(%rax),%rax
  403a0e:	48 29 c2             	sub    %rax,%rdx
  403a11:	48 89 d0             	mov    %rdx,%rax
  403a14:	48 89 45 c0          	mov    %rax,-0x40(%rbp)
  403a18:	8b 45 fc             	mov    -0x4(%rbp),%eax
  403a1b:	48 98                	cltq   
  403a1d:	48 c1 e0 04          	shl    $0x4,%rax
  403a21:	48 89 c2             	mov    %rax,%rdx
  403a24:	48 8b 45 e0          	mov    -0x20(%rbp),%rax
  403a28:	48 01 d0             	add    %rdx,%rax
  403a2b:	48 8b 50 08          	mov    0x8(%rax),%rdx
  403a2f:	48 8b 45 c0          	mov    -0x40(%rbp),%rax
  403a33:	48 39 c2             	cmp    %rax,%rdx
  403a36:	48 0f 46 c2          	cmovbe %rdx,%rax
  403a3a:	48 89 45 b8          	mov    %rax,-0x48(%rbp)
  403a3e:	48 8b 55 b8          	mov    -0x48(%rbp),%rdx
  403a42:	48 8b 45 c8          	mov    -0x38(%rbp),%rax
  403a46:	48 8b 08             	mov    (%rax),%rcx
  403a49:	48 8b 45 c8          	mov    -0x38(%rbp),%rax
  403a4d:	48 8b 40 10          	mov    0x10(%rax),%rax
  403a51:	48 01 c1             	add    %rax,%rcx
  403a54:	8b 45 fc             	mov    -0x4(%rbp),%eax
  403a57:	48 98                	cltq   
  403a59:	48 c1 e0 04          	shl    $0x4,%rax
  403a5d:	48 89 c6             	mov    %rax,%rsi
  403a60:	48 8b 45 e0          	mov    -0x20(%rbp),%rax
  403a64:	48 01 f0             	add    %rsi,%rax
  403a67:	48 8b 00             	mov    (%rax),%rax
  403a6a:	48 89 ce             	mov    %rcx,%rsi
  403a6d:	48 89 c7             	mov    %rax,%rdi
  403a70:	e8 c2 a7 00 00       	callq  40e237 <memcpy>
  403a75:	48 8b 45 c8          	mov    -0x38(%rbp),%rax
  403a79:	48 8b 50 10          	mov    0x10(%rax),%rdx
  403a7d:	48 8b 45 b8          	mov    -0x48(%rbp),%rax
  403a81:	48 01 c2             	add    %rax,%rdx
  403a84:	48 8b 45 c8          	mov    -0x38(%rbp),%rax
  403a88:	48 89 50 10          	mov    %rdx,0x10(%rax)
  403a8c:	48 8b 45 b8          	mov    -0x48(%rbp),%rax
  403a90:	48 01 45 f0          	add    %rax,-0x10(%rbp)
  403a94:	83 45 fc 01          	addl   $0x1,-0x4(%rbp)
  403a98:	8b 45 fc             	mov    -0x4(%rbp),%eax
  403a9b:	3b 45 dc             	cmp    -0x24(%rbp),%eax
  403a9e:	7d 1a                	jge    403aba <sys_readv+0x231>
  403aa0:	48 8b 45 c8          	mov    -0x38(%rbp),%rax
  403aa4:	48 8b 50 10          	mov    0x10(%rax),%rdx
  403aa8:	48 8b 45 c8          	mov    -0x38(%rbp),%rax
  403aac:	8b 40 08             	mov    0x8(%rax),%eax
  403aaf:	89 c0                	mov    %eax,%eax
  403ab1:	48 39 c2             	cmp    %rax,%rdx
  403ab4:	0f 8c 43 ff ff ff    	jl     4039fd <sys_readv+0x174>
  403aba:	48 8b 45 f0          	mov    -0x10(%rbp),%rax
  403abe:	c9                   	leaveq 
  403abf:	c3                   	retq   

0000000000403ac0 <sys_read>:
  403ac0:	f3 0f 1e fa          	endbr64 
  403ac4:	55                   	push   %rbp
  403ac5:	48 89 e5             	mov    %rsp,%rbp
  403ac8:	48 83 ec 40          	sub    $0x40,%rsp
  403acc:	48 89 7d c8          	mov    %rdi,-0x38(%rbp)
  403ad0:	48 8b 45 c8          	mov    -0x38(%rbp),%rax
  403ad4:	8b 00                	mov    (%rax),%eax
  403ad6:	83 f8 2f             	cmp    $0x2f,%eax
  403ad9:	77 24                	ja     403aff <sys_read+0x3f>
  403adb:	48 8b 45 c8          	mov    -0x38(%rbp),%rax
  403adf:	48 8b 50 10          	mov    0x10(%rax),%rdx
  403ae3:	48 8b 45 c8          	mov    -0x38(%rbp),%rax
  403ae7:	8b 00                	mov    (%rax),%eax
  403ae9:	89 c0                	mov    %eax,%eax
  403aeb:	48 01 d0             	add    %rdx,%rax
  403aee:	48 8b 55 c8          	mov    -0x38(%rbp),%rdx
  403af2:	8b 12                	mov    (%rdx),%edx
  403af4:	8d 4a 08             	lea    0x8(%rdx),%ecx
  403af7:	48 8b 55 c8          	mov    -0x38(%rbp),%rdx
  403afb:	89 0a                	mov    %ecx,(%rdx)
  403afd:	eb 14                	jmp    403b13 <sys_read+0x53>
  403aff:	48 8b 45 c8          	mov    -0x38(%rbp),%rax
  403b03:	48 8b 40 08          	mov    0x8(%rax),%rax
  403b07:	48 8d 50 08          	lea    0x8(%rax),%rdx
  403b0b:	48 8b 4d c8          	mov    -0x38(%rbp),%rcx
  403b0f:	48 89 51 08          	mov    %rdx,0x8(%rcx)
  403b13:	8b 00                	mov    (%rax),%eax
  403b15:	89 45 fc             	mov    %eax,-0x4(%rbp)
  403b18:	48 8b 45 c8          	mov    -0x38(%rbp),%rax
  403b1c:	8b 00                	mov    (%rax),%eax
  403b1e:	83 f8 2f             	cmp    $0x2f,%eax
  403b21:	77 24                	ja     403b47 <sys_read+0x87>
  403b23:	48 8b 45 c8          	mov    -0x38(%rbp),%rax
  403b27:	48 8b 50 10          	mov    0x10(%rax),%rdx
  403b2b:	48 8b 45 c8          	mov    -0x38(%rbp),%rax
  403b2f:	8b 00                	mov    (%rax),%eax
  403b31:	89 c0                	mov    %eax,%eax
  403b33:	48 01 d0             	add    %rdx,%rax
  403b36:	48 8b 55 c8          	mov    -0x38(%rbp),%rdx
  403b3a:	8b 12                	mov    (%rdx),%edx
  403b3c:	8d 4a 08             	lea    0x8(%rdx),%ecx
  403b3f:	48 8b 55 c8          	mov    -0x38(%rbp),%rdx
  403b43:	89 0a                	mov    %ecx,(%rdx)
  403b45:	eb 14                	jmp    403b5b <sys_read+0x9b>
  403b47:	48 8b 45 c8          	mov    -0x38(%rbp),%rax
  403b4b:	48 8b 40 08          	mov    0x8(%rax),%rax
  403b4f:	48 8d 50 08          	lea    0x8(%rax),%rdx
  403b53:	48 8b 4d c8          	mov    -0x38(%rbp),%rcx
  403b57:	48 89 51 08          	mov    %rdx,0x8(%rcx)
  403b5b:	48 8b 00             	mov    (%rax),%rax
  403b5e:	48 89 45 f0          	mov    %rax,-0x10(%rbp)
  403b62:	48 8b 45 c8          	mov    -0x38(%rbp),%rax
  403b66:	8b 00                	mov    (%rax),%eax
  403b68:	83 f8 2f             	cmp    $0x2f,%eax
  403b6b:	77 24                	ja     403b91 <sys_read+0xd1>
  403b6d:	48 8b 45 c8          	mov    -0x38(%rbp),%rax
  403b71:	48 8b 50 10          	mov    0x10(%rax),%rdx
  403b75:	48 8b 45 c8          	mov    -0x38(%rbp),%rax
  403b79:	8b 00                	mov    (%rax),%eax
  403b7b:	89 c0                	mov    %eax,%eax
  403b7d:	48 01 d0             	add    %rdx,%rax
  403b80:	48 8b 55 c8          	mov    -0x38(%rbp),%rdx
  403b84:	8b 12                	mov    (%rdx),%edx
  403b86:	8d 4a 08             	lea    0x8(%rdx),%ecx
  403b89:	48 8b 55 c8          	mov    -0x38(%rbp),%rdx
  403b8d:	89 0a                	mov    %ecx,(%rdx)
  403b8f:	eb 14                	jmp    403ba5 <sys_read+0xe5>
  403b91:	48 8b 45 c8          	mov    -0x38(%rbp),%rax
  403b95:	48 8b 40 08          	mov    0x8(%rax),%rax
  403b99:	48 8d 50 08          	lea    0x8(%rax),%rdx
  403b9d:	48 8b 4d c8          	mov    -0x38(%rbp),%rcx
  403ba1:	48 89 51 08          	mov    %rdx,0x8(%rcx)
  403ba5:	48 8b 00             	mov    (%rax),%rax
  403ba8:	48 89 45 e8          	mov    %rax,-0x18(%rbp)
  403bac:	48 8b 45 f0          	mov    -0x10(%rbp),%rax
  403bb0:	48 89 45 d0          	mov    %rax,-0x30(%rbp)
  403bb4:	48 8b 45 e8          	mov    -0x18(%rbp),%rax
  403bb8:	48 89 45 d8          	mov    %rax,-0x28(%rbp)
  403bbc:	48 8d 45 d0          	lea    -0x30(%rbp),%rax
  403bc0:	8b 4d fc             	mov    -0x4(%rbp),%ecx
  403bc3:	ba 01 00 00 00       	mov    $0x1,%edx
  403bc8:	48 89 c6             	mov    %rax,%rsi
  403bcb:	89 cf                	mov    %ecx,%edi
  403bcd:	e8 12 a9 00 00       	callq  40e4e4 <readv>
  403bd2:	c9                   	leaveq 
  403bd3:	c3                   	retq   

0000000000403bd4 <sys_ioctl>:
  403bd4:	f3 0f 1e fa          	endbr64 
  403bd8:	55                   	push   %rbp
  403bd9:	48 89 e5             	mov    %rsp,%rbp
  403bdc:	48 83 ec 20          	sub    $0x20,%rsp
  403be0:	48 89 7d e8          	mov    %rdi,-0x18(%rbp)
  403be4:	48 8b 45 e8          	mov    -0x18(%rbp),%rax
  403be8:	8b 00                	mov    (%rax),%eax
  403bea:	83 f8 2f             	cmp    $0x2f,%eax
  403bed:	77 24                	ja     403c13 <sys_ioctl+0x3f>
  403bef:	48 8b 45 e8          	mov    -0x18(%rbp),%rax
  403bf3:	48 8b 50 10          	mov    0x10(%rax),%rdx
  403bf7:	48 8b 45 e8          	mov    -0x18(%rbp),%rax
  403bfb:	8b 00                	mov    (%rax),%eax
  403bfd:	89 c0                	mov    %eax,%eax
  403bff:	48 01 d0             	add    %rdx,%rax
  403c02:	48 8b 55 e8          	mov    -0x18(%rbp),%rdx
  403c06:	8b 12                	mov    (%rdx),%edx
  403c08:	8d 4a 08             	lea    0x8(%rdx),%ecx
  403c0b:	48 8b 55 e8          	mov    -0x18(%rbp),%rdx
  403c0f:	89 0a                	mov    %ecx,(%rdx)
  403c11:	eb 14                	jmp    403c27 <sys_ioctl+0x53>
  403c13:	48 8b 45 e8          	mov    -0x18(%rbp),%rax
  403c17:	48 8b 40 08          	mov    0x8(%rax),%rax
  403c1b:	48 8d 50 08          	lea    0x8(%rax),%rdx
  403c1f:	48 8b 4d e8          	mov    -0x18(%rbp),%rcx
  403c23:	48 89 51 08          	mov    %rdx,0x8(%rcx)
  403c27:	8b 00                	mov    (%rax),%eax
  403c29:	89 45 fc             	mov    %eax,-0x4(%rbp)
  403c2c:	48 8b 45 e8          	mov    -0x18(%rbp),%rax
  403c30:	8b 00                	mov    (%rax),%eax
  403c32:	83 f8 2f             	cmp    $0x2f,%eax
  403c35:	77 24                	ja     403c5b <sys_ioctl+0x87>
  403c37:	48 8b 45 e8          	mov    -0x18(%rbp),%rax
  403c3b:	48 8b 50 10          	mov    0x10(%rax),%rdx
  403c3f:	48 8b 45 e8          	mov    -0x18(%rbp),%rax
  403c43:	8b 00                	mov    (%rax),%eax
  403c45:	89 c0                	mov    %eax,%eax
  403c47:	48 01 d0             	add    %rdx,%rax
  403c4a:	48 8b 55 e8          	mov    -0x18(%rbp),%rdx
  403c4e:	8b 12                	mov    (%rdx),%edx
  403c50:	8d 4a 08             	lea    0x8(%rdx),%ecx
  403c53:	48 8b 55 e8          	mov    -0x18(%rbp),%rdx
  403c57:	89 0a                	mov    %ecx,(%rdx)
  403c59:	eb 14                	jmp    403c6f <sys_ioctl+0x9b>
  403c5b:	48 8b 45 e8          	mov    -0x18(%rbp),%rax
  403c5f:	48 8b 40 08          	mov    0x8(%rax),%rax
  403c63:	48 8d 50 08          	lea    0x8(%rax),%rdx
  403c67:	48 8b 4d e8          	mov    -0x18(%rbp),%rcx
  403c6b:	48 89 51 08          	mov    %rdx,0x8(%rcx)
  403c6f:	8b 00                	mov    (%rax),%eax
  403c71:	89 45 f8             	mov    %eax,-0x8(%rbp)
  403c74:	83 7d fc 01          	cmpl   $0x1,-0x4(%rbp)
  403c78:	75 07                	jne    403c81 <sys_ioctl+0xad>
  403c7a:	b8 00 00 00 00       	mov    $0x0,%eax
  403c7f:	eb 19                	jmp    403c9a <sys_ioctl+0xc6>
  403c81:	b9 40 23 41 00       	mov    $0x412340,%ecx
  403c86:	ba 84 01 00 00       	mov    $0x184,%edx
  403c8b:	be 68 20 41 00       	mov    $0x412068,%esi
  403c90:	bf 1d 22 41 00       	mov    $0x41221d,%edi
  403c95:	e8 6a 76 00 00       	callq  40b304 <__assert_fail>
  403c9a:	c9                   	leaveq 
  403c9b:	c3                   	retq   

0000000000403c9c <sys_prlimit64>:
  403c9c:	f3 0f 1e fa          	endbr64 
  403ca0:	55                   	push   %rbp
  403ca1:	48 89 e5             	mov    %rsp,%rbp
  403ca4:	48 83 ec 30          	sub    $0x30,%rsp
  403ca8:	48 89 7d d8          	mov    %rdi,-0x28(%rbp)
  403cac:	48 8b 45 d8          	mov    -0x28(%rbp),%rax
  403cb0:	8b 00                	mov    (%rax),%eax
  403cb2:	83 f8 2f             	cmp    $0x2f,%eax
  403cb5:	77 24                	ja     403cdb <sys_prlimit64+0x3f>
  403cb7:	48 8b 45 d8          	mov    -0x28(%rbp),%rax
  403cbb:	48 8b 50 10          	mov    0x10(%rax),%rdx
  403cbf:	48 8b 45 d8          	mov    -0x28(%rbp),%rax
  403cc3:	8b 00                	mov    (%rax),%eax
  403cc5:	89 c0                	mov    %eax,%eax
  403cc7:	48 01 d0             	add    %rdx,%rax
  403cca:	48 8b 55 d8          	mov    -0x28(%rbp),%rdx
  403cce:	8b 12                	mov    (%rdx),%edx
  403cd0:	8d 4a 08             	lea    0x8(%rdx),%ecx
  403cd3:	48 8b 55 d8          	mov    -0x28(%rbp),%rdx
  403cd7:	89 0a                	mov    %ecx,(%rdx)
  403cd9:	eb 14                	jmp    403cef <sys_prlimit64+0x53>
  403cdb:	48 8b 45 d8          	mov    -0x28(%rbp),%rax
  403cdf:	48 8b 40 08          	mov    0x8(%rax),%rax
  403ce3:	48 8d 50 08          	lea    0x8(%rax),%rdx
  403ce7:	48 8b 4d d8          	mov    -0x28(%rbp),%rcx
  403ceb:	48 89 51 08          	mov    %rdx,0x8(%rcx)
  403cef:	8b 00                	mov    (%rax),%eax
  403cf1:	89 45 f8             	mov    %eax,-0x8(%rbp)
  403cf4:	48 8b 45 d8          	mov    -0x28(%rbp),%rax
  403cf8:	8b 00                	mov    (%rax),%eax
  403cfa:	83 f8 2f             	cmp    $0x2f,%eax
  403cfd:	77 24                	ja     403d23 <sys_prlimit64+0x87>
  403cff:	48 8b 45 d8          	mov    -0x28(%rbp),%rax
  403d03:	48 8b 50 10          	mov    0x10(%rax),%rdx
  403d07:	48 8b 45 d8          	mov    -0x28(%rbp),%rax
  403d0b:	8b 00                	mov    (%rax),%eax
  403d0d:	89 c0                	mov    %eax,%eax
  403d0f:	48 01 d0             	add    %rdx,%rax
  403d12:	48 8b 55 d8          	mov    -0x28(%rbp),%rdx
  403d16:	8b 12                	mov    (%rdx),%edx
  403d18:	8d 4a 08             	lea    0x8(%rdx),%ecx
  403d1b:	48 8b 55 d8          	mov    -0x28(%rbp),%rdx
  403d1f:	89 0a                	mov    %ecx,(%rdx)
  403d21:	eb 14                	jmp    403d37 <sys_prlimit64+0x9b>
  403d23:	48 8b 45 d8          	mov    -0x28(%rbp),%rax
  403d27:	48 8b 40 08          	mov    0x8(%rax),%rax
  403d2b:	48 8d 50 08          	lea    0x8(%rax),%rdx
  403d2f:	48 8b 4d d8          	mov    -0x28(%rbp),%rcx
  403d33:	48 89 51 08          	mov    %rdx,0x8(%rcx)
  403d37:	8b 00                	mov    (%rax),%eax
  403d39:	89 45 f4             	mov    %eax,-0xc(%rbp)
  403d3c:	48 8b 45 d8          	mov    -0x28(%rbp),%rax
  403d40:	8b 00                	mov    (%rax),%eax
  403d42:	83 f8 2f             	cmp    $0x2f,%eax
  403d45:	77 24                	ja     403d6b <sys_prlimit64+0xcf>
  403d47:	48 8b 45 d8          	mov    -0x28(%rbp),%rax
  403d4b:	48 8b 50 10          	mov    0x10(%rax),%rdx
  403d4f:	48 8b 45 d8          	mov    -0x28(%rbp),%rax
  403d53:	8b 00                	mov    (%rax),%eax
  403d55:	89 c0                	mov    %eax,%eax
  403d57:	48 01 d0             	add    %rdx,%rax
  403d5a:	48 8b 55 d8          	mov    -0x28(%rbp),%rdx
  403d5e:	8b 12                	mov    (%rdx),%edx
  403d60:	8d 4a 08             	lea    0x8(%rdx),%ecx
  403d63:	48 8b 55 d8          	mov    -0x28(%rbp),%rdx
  403d67:	89 0a                	mov    %ecx,(%rdx)
  403d69:	eb 14                	jmp    403d7f <sys_prlimit64+0xe3>
  403d6b:	48 8b 45 d8          	mov    -0x28(%rbp),%rax
  403d6f:	48 8b 40 08          	mov    0x8(%rax),%rax
  403d73:	48 8d 50 08          	lea    0x8(%rax),%rdx
  403d77:	48 8b 4d d8          	mov    -0x28(%rbp),%rcx
  403d7b:	48 89 51 08          	mov    %rdx,0x8(%rcx)
  403d7f:	48 8b 00             	mov    (%rax),%rax
  403d82:	48 89 45 e8          	mov    %rax,-0x18(%rbp)
  403d86:	48 8b 45 d8          	mov    -0x28(%rbp),%rax
  403d8a:	8b 00                	mov    (%rax),%eax
  403d8c:	83 f8 2f             	cmp    $0x2f,%eax
  403d8f:	77 24                	ja     403db5 <sys_prlimit64+0x119>
  403d91:	48 8b 45 d8          	mov    -0x28(%rbp),%rax
  403d95:	48 8b 50 10          	mov    0x10(%rax),%rdx
  403d99:	48 8b 45 d8          	mov    -0x28(%rbp),%rax
  403d9d:	8b 00                	mov    (%rax),%eax
  403d9f:	89 c0                	mov    %eax,%eax
  403da1:	48 01 d0             	add    %rdx,%rax
  403da4:	48 8b 55 d8          	mov    -0x28(%rbp),%rdx
  403da8:	8b 12                	mov    (%rdx),%edx
  403daa:	8d 4a 08             	lea    0x8(%rdx),%ecx
  403dad:	48 8b 55 d8          	mov    -0x28(%rbp),%rdx
  403db1:	89 0a                	mov    %ecx,(%rdx)
  403db3:	eb 14                	jmp    403dc9 <sys_prlimit64+0x12d>
  403db5:	48 8b 45 d8          	mov    -0x28(%rbp),%rax
  403db9:	48 8b 40 08          	mov    0x8(%rax),%rax
  403dbd:	48 8d 50 08          	lea    0x8(%rax),%rdx
  403dc1:	48 8b 4d d8          	mov    -0x28(%rbp),%rcx
  403dc5:	48 89 51 08          	mov    %rdx,0x8(%rcx)
  403dc9:	48 8b 00             	mov    (%rax),%rax
  403dcc:	48 89 45 e0          	mov    %rax,-0x20(%rbp)
  403dd0:	c7 45 fc 00 00 00 00 	movl   $0x0,-0x4(%rbp)
  403dd7:	83 7d f4 07          	cmpl   $0x7,-0xc(%rbp)
  403ddb:	75 68                	jne    403e45 <sys_prlimit64+0x1a9>
  403ddd:	48 83 7d e0 00       	cmpq   $0x0,-0x20(%rbp)
  403de2:	74 1b                	je     403dff <sys_prlimit64+0x163>
  403de4:	8b 05 1e 32 01 00    	mov    0x1321e(%rip),%eax        # 417008 <num_fds>
  403dea:	48 98                	cltq   
  403dec:	48 8b 55 e0          	mov    -0x20(%rbp),%rdx
  403df0:	48 89 02             	mov    %rax,(%rdx)
  403df3:	48 8b 45 e0          	mov    -0x20(%rbp),%rax
  403df7:	48 c7 40 08 00 00 01 	movq   $0x10000,0x8(%rax)
  403dfe:	00 
  403dff:	48 83 7d e8 00       	cmpq   $0x0,-0x18(%rbp)
  403e04:	74 58                	je     403e5e <sys_prlimit64+0x1c2>
  403e06:	48 8b 45 e8          	mov    -0x18(%rbp),%rax
  403e0a:	48 8b 10             	mov    (%rax),%rdx
  403e0d:	8b 05 f5 31 01 00    	mov    0x131f5(%rip),%eax        # 417008 <num_fds>
  403e13:	48 98                	cltq   
  403e15:	48 39 c2             	cmp    %rax,%rdx
  403e18:	73 0c                	jae    403e26 <sys_prlimit64+0x18a>
  403e1a:	bf 48 22 41 00       	mov    $0x412248,%edi
  403e1f:	e8 81 86 00 00       	callq  40c4a5 <puts>
  403e24:	eb 38                	jmp    403e5e <sys_prlimit64+0x1c2>
  403e26:	48 8b 45 e8          	mov    -0x18(%rbp),%rax
  403e2a:	48 8b 00             	mov    (%rax),%rax
  403e2d:	89 c2                	mov    %eax,%edx
  403e2f:	8b 05 d3 31 01 00    	mov    0x131d3(%rip),%eax        # 417008 <num_fds>
  403e35:	29 c2                	sub    %eax,%edx
  403e37:	89 d0                	mov    %edx,%eax
  403e39:	89 c7                	mov    %eax,%edi
  403e3b:	e8 c5 ee ff ff       	callq  402d05 <grow_fds>
  403e40:	89 45 fc             	mov    %eax,-0x4(%rbp)
  403e43:	eb 19                	jmp    403e5e <sys_prlimit64+0x1c2>
  403e45:	b9 50 23 41 00       	mov    $0x412350,%ecx
  403e4a:	ba a3 01 00 00       	mov    $0x1a3,%edx
  403e4f:	be 68 20 41 00       	mov    $0x412068,%esi
  403e54:	bf 1d 22 41 00       	mov    $0x41221d,%edi
  403e59:	e8 a6 74 00 00       	callq  40b304 <__assert_fail>
  403e5e:	8b 45 fc             	mov    -0x4(%rbp),%eax
  403e61:	48 98                	cltq   
  403e63:	c9                   	leaveq 
  403e64:	c3                   	retq   

0000000000403e65 <safe_addition>:
  403e65:	f3 0f 1e fa          	endbr64 
  403e69:	55                   	push   %rbp
  403e6a:	48 89 e5             	mov    %rsp,%rbp
  403e6d:	89 7d fc             	mov    %edi,-0x4(%rbp)
  403e70:	89 75 f8             	mov    %esi,-0x8(%rbp)
  403e73:	83 7d fc 00          	cmpl   $0x0,-0x4(%rbp)
  403e77:	78 0d                	js     403e86 <safe_addition+0x21>
  403e79:	b8 ff ff ff 7f       	mov    $0x7fffffff,%eax
  403e7e:	2b 45 fc             	sub    -0x4(%rbp),%eax
  403e81:	39 45 f8             	cmp    %eax,-0x8(%rbp)
  403e84:	7f 1a                	jg     403ea0 <safe_addition+0x3b>
  403e86:	83 7d fc 00          	cmpl   $0x0,-0x4(%rbp)
  403e8a:	79 0d                	jns    403e99 <safe_addition+0x34>
  403e8c:	b8 ff ff ff 7f       	mov    $0x7fffffff,%eax
  403e91:	2b 45 fc             	sub    -0x4(%rbp),%eax
  403e94:	39 45 f8             	cmp    %eax,-0x8(%rbp)
  403e97:	7c 07                	jl     403ea0 <safe_addition+0x3b>
  403e99:	b8 01 00 00 00       	mov    $0x1,%eax
  403e9e:	eb 05                	jmp    403ea5 <safe_addition+0x40>
  403ea0:	b8 00 00 00 00       	mov    $0x0,%eax
  403ea5:	5d                   	pop    %rbp
  403ea6:	c3                   	retq   

0000000000403ea7 <sys_lseek>:
  403ea7:	f3 0f 1e fa          	endbr64 
  403eab:	55                   	push   %rbp
  403eac:	48 89 e5             	mov    %rsp,%rbp
  403eaf:	48 83 ec 40          	sub    $0x40,%rsp
  403eb3:	48 89 7d c8          	mov    %rdi,-0x38(%rbp)
  403eb7:	48 8b 45 c8          	mov    -0x38(%rbp),%rax
  403ebb:	8b 00                	mov    (%rax),%eax
  403ebd:	83 f8 2f             	cmp    $0x2f,%eax
  403ec0:	77 24                	ja     403ee6 <sys_lseek+0x3f>
  403ec2:	48 8b 45 c8          	mov    -0x38(%rbp),%rax
  403ec6:	48 8b 50 10          	mov    0x10(%rax),%rdx
  403eca:	48 8b 45 c8          	mov    -0x38(%rbp),%rax
  403ece:	8b 00                	mov    (%rax),%eax
  403ed0:	89 c0                	mov    %eax,%eax
  403ed2:	48 01 d0             	add    %rdx,%rax
  403ed5:	48 8b 55 c8          	mov    -0x38(%rbp),%rdx
  403ed9:	8b 12                	mov    (%rdx),%edx
  403edb:	8d 4a 08             	lea    0x8(%rdx),%ecx
  403ede:	48 8b 55 c8          	mov    -0x38(%rbp),%rdx
  403ee2:	89 0a                	mov    %ecx,(%rdx)
  403ee4:	eb 14                	jmp    403efa <sys_lseek+0x53>
  403ee6:	48 8b 45 c8          	mov    -0x38(%rbp),%rax
  403eea:	48 8b 40 08          	mov    0x8(%rax),%rax
  403eee:	48 8d 50 08          	lea    0x8(%rax),%rdx
  403ef2:	48 8b 4d c8          	mov    -0x38(%rbp),%rcx
  403ef6:	48 89 51 08          	mov    %rdx,0x8(%rcx)
  403efa:	8b 00                	mov    (%rax),%eax
  403efc:	89 45 f8             	mov    %eax,-0x8(%rbp)
  403eff:	48 8b 45 c8          	mov    -0x38(%rbp),%rax
  403f03:	8b 00                	mov    (%rax),%eax
  403f05:	83 f8 2f             	cmp    $0x2f,%eax
  403f08:	77 24                	ja     403f2e <sys_lseek+0x87>
  403f0a:	48 8b 45 c8          	mov    -0x38(%rbp),%rax
  403f0e:	48 8b 50 10          	mov    0x10(%rax),%rdx
  403f12:	48 8b 45 c8          	mov    -0x38(%rbp),%rax
  403f16:	8b 00                	mov    (%rax),%eax
  403f18:	89 c0                	mov    %eax,%eax
  403f1a:	48 01 d0             	add    %rdx,%rax
  403f1d:	48 8b 55 c8          	mov    -0x38(%rbp),%rdx
  403f21:	8b 12                	mov    (%rdx),%edx
  403f23:	8d 4a 08             	lea    0x8(%rdx),%ecx
  403f26:	48 8b 55 c8          	mov    -0x38(%rbp),%rdx
  403f2a:	89 0a                	mov    %ecx,(%rdx)
  403f2c:	eb 14                	jmp    403f42 <sys_lseek+0x9b>
  403f2e:	48 8b 45 c8          	mov    -0x38(%rbp),%rax
  403f32:	48 8b 40 08          	mov    0x8(%rax),%rax
  403f36:	48 8d 50 08          	lea    0x8(%rax),%rdx
  403f3a:	48 8b 4d c8          	mov    -0x38(%rbp),%rcx
  403f3e:	48 89 51 08          	mov    %rdx,0x8(%rcx)
  403f42:	48 8b 00             	mov    (%rax),%rax
  403f45:	48 89 45 f0          	mov    %rax,-0x10(%rbp)
  403f49:	48 8b 45 c8          	mov    -0x38(%rbp),%rax
  403f4d:	8b 00                	mov    (%rax),%eax
  403f4f:	83 f8 2f             	cmp    $0x2f,%eax
  403f52:	77 24                	ja     403f78 <sys_lseek+0xd1>
  403f54:	48 8b 45 c8          	mov    -0x38(%rbp),%rax
  403f58:	48 8b 50 10          	mov    0x10(%rax),%rdx
  403f5c:	48 8b 45 c8          	mov    -0x38(%rbp),%rax
  403f60:	8b 00                	mov    (%rax),%eax
  403f62:	89 c0                	mov    %eax,%eax
  403f64:	48 01 d0             	add    %rdx,%rax
  403f67:	48 8b 55 c8          	mov    -0x38(%rbp),%rdx
  403f6b:	8b 12                	mov    (%rdx),%edx
  403f6d:	8d 4a 08             	lea    0x8(%rdx),%ecx
  403f70:	48 8b 55 c8          	mov    -0x38(%rbp),%rdx
  403f74:	89 0a                	mov    %ecx,(%rdx)
  403f76:	eb 14                	jmp    403f8c <sys_lseek+0xe5>
  403f78:	48 8b 45 c8          	mov    -0x38(%rbp),%rax
  403f7c:	48 8b 40 08          	mov    0x8(%rax),%rax
  403f80:	48 8d 50 08          	lea    0x8(%rax),%rdx
  403f84:	48 8b 4d c8          	mov    -0x38(%rbp),%rcx
  403f88:	48 89 51 08          	mov    %rdx,0x8(%rcx)
  403f8c:	8b 00                	mov    (%rax),%eax
  403f8e:	89 45 ec             	mov    %eax,-0x14(%rbp)
  403f91:	8b 45 f8             	mov    -0x8(%rbp),%eax
  403f94:	89 c7                	mov    %eax,%edi
  403f96:	e8 93 ec ff ff       	callq  402c2e <valid_fd>
  403f9b:	85 c0                	test   %eax,%eax
  403f9d:	75 0c                	jne    403fab <sys_lseek+0x104>
  403f9f:	48 c7 c0 f7 ff ff ff 	mov    $0xfffffffffffffff7,%rax
  403fa6:	e9 16 01 00 00       	jmpq   4040c1 <sys_lseek+0x21a>
  403fab:	8b 45 f8             	mov    -0x8(%rbp),%eax
  403fae:	89 c7                	mov    %eax,%edi
  403fb0:	e8 31 ef ff ff       	callq  402ee6 <get_fd_struct>
  403fb5:	48 89 45 e0          	mov    %rax,-0x20(%rbp)
  403fb9:	48 83 7d e0 00       	cmpq   $0x0,-0x20(%rbp)
  403fbe:	75 0c                	jne    403fcc <sys_lseek+0x125>
  403fc0:	48 c7 c0 f7 ff ff ff 	mov    $0xfffffffffffffff7,%rax
  403fc7:	e9 f5 00 00 00       	jmpq   4040c1 <sys_lseek+0x21a>
  403fcc:	48 8b 45 e0          	mov    -0x20(%rbp),%rax
  403fd0:	8b 00                	mov    (%rax),%eax
  403fd2:	85 c0                	test   %eax,%eax
  403fd4:	74 19                	je     403fef <sys_lseek+0x148>
  403fd6:	b9 60 23 41 00       	mov    $0x412360,%ecx
  403fdb:	ba bf 01 00 00       	mov    $0x1bf,%edx
  403fe0:	be 68 20 41 00       	mov    $0x412068,%esi
  403fe5:	bf 8c 22 41 00       	mov    $0x41228c,%edi
  403fea:	e8 15 73 00 00       	callq  40b304 <__assert_fail>
  403fef:	48 8b 45 e0          	mov    -0x20(%rbp),%rax
  403ff3:	48 8b 40 08          	mov    0x8(%rax),%rax
  403ff7:	48 89 45 d8          	mov    %rax,-0x28(%rbp)
  403ffb:	c7 45 fc 00 00 00 00 	movl   $0x0,-0x4(%rbp)
  404002:	83 7d ec 02          	cmpl   $0x2,-0x14(%rbp)
  404006:	74 56                	je     40405e <sys_lseek+0x1b7>
  404008:	83 7d ec 02          	cmpl   $0x2,-0x14(%rbp)
  40400c:	7f 72                	jg     404080 <sys_lseek+0x1d9>
  40400e:	83 7d ec 00          	cmpl   $0x0,-0x14(%rbp)
  404012:	74 08                	je     40401c <sys_lseek+0x175>
  404014:	83 7d ec 01          	cmpl   $0x1,-0x14(%rbp)
  404018:	74 0b                	je     404025 <sys_lseek+0x17e>
  40401a:	eb 64                	jmp    404080 <sys_lseek+0x1d9>
  40401c:	48 8b 45 f0          	mov    -0x10(%rbp),%rax
  404020:	89 45 fc             	mov    %eax,-0x4(%rbp)
  404023:	eb 64                	jmp    404089 <sys_lseek+0x1e2>
  404025:	48 8b 45 f0          	mov    -0x10(%rbp),%rax
  404029:	89 c2                	mov    %eax,%edx
  40402b:	48 8b 45 d8          	mov    -0x28(%rbp),%rax
  40402f:	48 8b 40 10          	mov    0x10(%rax),%rax
  404033:	89 d6                	mov    %edx,%esi
  404035:	89 c7                	mov    %eax,%edi
  404037:	e8 29 fe ff ff       	callq  403e65 <safe_addition>
  40403c:	85 c0                	test   %eax,%eax
  40403e:	75 09                	jne    404049 <sys_lseek+0x1a2>
  404040:	48 c7 c0 b5 ff ff ff 	mov    $0xffffffffffffffb5,%rax
  404047:	eb 78                	jmp    4040c1 <sys_lseek+0x21a>
  404049:	48 8b 45 d8          	mov    -0x28(%rbp),%rax
  40404d:	48 8b 40 10          	mov    0x10(%rax),%rax
  404051:	89 c2                	mov    %eax,%edx
  404053:	48 8b 45 f0          	mov    -0x10(%rbp),%rax
  404057:	01 d0                	add    %edx,%eax
  404059:	89 45 fc             	mov    %eax,-0x4(%rbp)
  40405c:	eb 2b                	jmp    404089 <sys_lseek+0x1e2>
  40405e:	48 83 7d f0 00       	cmpq   $0x0,-0x10(%rbp)
  404063:	7e 09                	jle    40406e <sys_lseek+0x1c7>
  404065:	48 c7 c0 ea ff ff ff 	mov    $0xffffffffffffffea,%rax
  40406c:	eb 53                	jmp    4040c1 <sys_lseek+0x21a>
  40406e:	48 8b 45 d8          	mov    -0x28(%rbp),%rax
  404072:	8b 40 08             	mov    0x8(%rax),%eax
  404075:	48 8b 55 f0          	mov    -0x10(%rbp),%rdx
  404079:	01 d0                	add    %edx,%eax
  40407b:	89 45 fc             	mov    %eax,-0x4(%rbp)
  40407e:	eb 09                	jmp    404089 <sys_lseek+0x1e2>
  404080:	48 c7 c0 ea ff ff ff 	mov    $0xffffffffffffffea,%rax
  404087:	eb 38                	jmp    4040c1 <sys_lseek+0x21a>
  404089:	83 7d fc 00          	cmpl   $0x0,-0x4(%rbp)
  40408d:	79 09                	jns    404098 <sys_lseek+0x1f1>
  40408f:	48 c7 c0 ea ff ff ff 	mov    $0xffffffffffffffea,%rax
  404096:	eb 29                	jmp    4040c1 <sys_lseek+0x21a>
  404098:	48 8b 45 d8          	mov    -0x28(%rbp),%rax
  40409c:	8b 50 08             	mov    0x8(%rax),%edx
  40409f:	8b 45 fc             	mov    -0x4(%rbp),%eax
  4040a2:	39 c2                	cmp    %eax,%edx
  4040a4:	73 09                	jae    4040af <sys_lseek+0x208>
  4040a6:	48 c7 c0 ea ff ff ff 	mov    $0xffffffffffffffea,%rax
  4040ad:	eb 12                	jmp    4040c1 <sys_lseek+0x21a>
  4040af:	8b 45 fc             	mov    -0x4(%rbp),%eax
  4040b2:	48 98                	cltq   
  4040b4:	48 8b 55 d8          	mov    -0x28(%rbp),%rdx
  4040b8:	48 89 42 10          	mov    %rax,0x10(%rdx)
  4040bc:	8b 45 fc             	mov    -0x4(%rbp),%eax
  4040bf:	48 98                	cltq   
  4040c1:	c9                   	leaveq 
  4040c2:	c3                   	retq   

00000000004040c3 <sys__llseek>:
  4040c3:	f3 0f 1e fa          	endbr64 
  4040c7:	55                   	push   %rbp
  4040c8:	48 89 e5             	mov    %rsp,%rbp
  4040cb:	48 83 ec 40          	sub    $0x40,%rsp
  4040cf:	48 89 7d c8          	mov    %rdi,-0x38(%rbp)
  4040d3:	48 8b 45 c8          	mov    -0x38(%rbp),%rax
  4040d7:	8b 00                	mov    (%rax),%eax
  4040d9:	83 f8 2f             	cmp    $0x2f,%eax
  4040dc:	77 24                	ja     404102 <sys__llseek+0x3f>
  4040de:	48 8b 45 c8          	mov    -0x38(%rbp),%rax
  4040e2:	48 8b 50 10          	mov    0x10(%rax),%rdx
  4040e6:	48 8b 45 c8          	mov    -0x38(%rbp),%rax
  4040ea:	8b 00                	mov    (%rax),%eax
  4040ec:	89 c0                	mov    %eax,%eax
  4040ee:	48 01 d0             	add    %rdx,%rax
  4040f1:	48 8b 55 c8          	mov    -0x38(%rbp),%rdx
  4040f5:	8b 12                	mov    (%rdx),%edx
  4040f7:	8d 4a 08             	lea    0x8(%rdx),%ecx
  4040fa:	48 8b 55 c8          	mov    -0x38(%rbp),%rdx
  4040fe:	89 0a                	mov    %ecx,(%rdx)
  404100:	eb 14                	jmp    404116 <sys__llseek+0x53>
  404102:	48 8b 45 c8          	mov    -0x38(%rbp),%rax
  404106:	48 8b 40 08          	mov    0x8(%rax),%rax
  40410a:	48 8d 50 08          	lea    0x8(%rax),%rdx
  40410e:	48 8b 4d c8          	mov    -0x38(%rbp),%rcx
  404112:	48 89 51 08          	mov    %rdx,0x8(%rcx)
  404116:	8b 00                	mov    (%rax),%eax
  404118:	89 45 fc             	mov    %eax,-0x4(%rbp)
  40411b:	48 8b 45 c8          	mov    -0x38(%rbp),%rax
  40411f:	8b 00                	mov    (%rax),%eax
  404121:	83 f8 2f             	cmp    $0x2f,%eax
  404124:	77 24                	ja     40414a <sys__llseek+0x87>
  404126:	48 8b 45 c8          	mov    -0x38(%rbp),%rax
  40412a:	48 8b 50 10          	mov    0x10(%rax),%rdx
  40412e:	48 8b 45 c8          	mov    -0x38(%rbp),%rax
  404132:	8b 00                	mov    (%rax),%eax
  404134:	89 c0                	mov    %eax,%eax
  404136:	48 01 d0             	add    %rdx,%rax
  404139:	48 8b 55 c8          	mov    -0x38(%rbp),%rdx
  40413d:	8b 12                	mov    (%rdx),%edx
  40413f:	8d 4a 08             	lea    0x8(%rdx),%ecx
  404142:	48 8b 55 c8          	mov    -0x38(%rbp),%rdx
  404146:	89 0a                	mov    %ecx,(%rdx)
  404148:	eb 14                	jmp    40415e <sys__llseek+0x9b>
  40414a:	48 8b 45 c8          	mov    -0x38(%rbp),%rax
  40414e:	48 8b 40 08          	mov    0x8(%rax),%rax
  404152:	48 8d 50 08          	lea    0x8(%rax),%rdx
  404156:	48 8b 4d c8          	mov    -0x38(%rbp),%rcx
  40415a:	48 89 51 08          	mov    %rdx,0x8(%rcx)
  40415e:	8b 00                	mov    (%rax),%eax
  404160:	89 45 f8             	mov    %eax,-0x8(%rbp)
  404163:	48 8b 45 c8          	mov    -0x38(%rbp),%rax
  404167:	8b 00                	mov    (%rax),%eax
  404169:	83 f8 2f             	cmp    $0x2f,%eax
  40416c:	77 24                	ja     404192 <sys__llseek+0xcf>
  40416e:	48 8b 45 c8          	mov    -0x38(%rbp),%rax
  404172:	48 8b 50 10          	mov    0x10(%rax),%rdx
  404176:	48 8b 45 c8          	mov    -0x38(%rbp),%rax
  40417a:	8b 00                	mov    (%rax),%eax
  40417c:	89 c0                	mov    %eax,%eax
  40417e:	48 01 d0             	add    %rdx,%rax
  404181:	48 8b 55 c8          	mov    -0x38(%rbp),%rdx
  404185:	8b 12                	mov    (%rdx),%edx
  404187:	8d 4a 08             	lea    0x8(%rdx),%ecx
  40418a:	48 8b 55 c8          	mov    -0x38(%rbp),%rdx
  40418e:	89 0a                	mov    %ecx,(%rdx)
  404190:	eb 14                	jmp    4041a6 <sys__llseek+0xe3>
  404192:	48 8b 45 c8          	mov    -0x38(%rbp),%rax
  404196:	48 8b 40 08          	mov    0x8(%rax),%rax
  40419a:	48 8d 50 08          	lea    0x8(%rax),%rdx
  40419e:	48 8b 4d c8          	mov    -0x38(%rbp),%rcx
  4041a2:	48 89 51 08          	mov    %rdx,0x8(%rcx)
  4041a6:	8b 00                	mov    (%rax),%eax
  4041a8:	89 45 f4             	mov    %eax,-0xc(%rbp)
  4041ab:	48 8b 45 c8          	mov    -0x38(%rbp),%rax
  4041af:	8b 00                	mov    (%rax),%eax
  4041b1:	83 f8 2f             	cmp    $0x2f,%eax
  4041b4:	77 24                	ja     4041da <sys__llseek+0x117>
  4041b6:	48 8b 45 c8          	mov    -0x38(%rbp),%rax
  4041ba:	48 8b 50 10          	mov    0x10(%rax),%rdx
  4041be:	48 8b 45 c8          	mov    -0x38(%rbp),%rax
  4041c2:	8b 00                	mov    (%rax),%eax
  4041c4:	89 c0                	mov    %eax,%eax
  4041c6:	48 01 d0             	add    %rdx,%rax
  4041c9:	48 8b 55 c8          	mov    -0x38(%rbp),%rdx
  4041cd:	8b 12                	mov    (%rdx),%edx
  4041cf:	8d 4a 08             	lea    0x8(%rdx),%ecx
  4041d2:	48 8b 55 c8          	mov    -0x38(%rbp),%rdx
  4041d6:	89 0a                	mov    %ecx,(%rdx)
  4041d8:	eb 14                	jmp    4041ee <sys__llseek+0x12b>
  4041da:	48 8b 45 c8          	mov    -0x38(%rbp),%rax
  4041de:	48 8b 40 08          	mov    0x8(%rax),%rax
  4041e2:	48 8d 50 08          	lea    0x8(%rax),%rdx
  4041e6:	48 8b 4d c8          	mov    -0x38(%rbp),%rcx
  4041ea:	48 89 51 08          	mov    %rdx,0x8(%rcx)
  4041ee:	48 8b 00             	mov    (%rax),%rax
  4041f1:	48 89 45 e8          	mov    %rax,-0x18(%rbp)
  4041f5:	48 8b 45 c8          	mov    -0x38(%rbp),%rax
  4041f9:	8b 00                	mov    (%rax),%eax
  4041fb:	83 f8 2f             	cmp    $0x2f,%eax
  4041fe:	77 24                	ja     404224 <sys__llseek+0x161>
  404200:	48 8b 45 c8          	mov    -0x38(%rbp),%rax
  404204:	48 8b 50 10          	mov    0x10(%rax),%rdx
  404208:	48 8b 45 c8          	mov    -0x38(%rbp),%rax
  40420c:	8b 00                	mov    (%rax),%eax
  40420e:	89 c0                	mov    %eax,%eax
  404210:	48 01 d0             	add    %rdx,%rax
  404213:	48 8b 55 c8          	mov    -0x38(%rbp),%rdx
  404217:	8b 12                	mov    (%rdx),%edx
  404219:	8d 4a 08             	lea    0x8(%rdx),%ecx
  40421c:	48 8b 55 c8          	mov    -0x38(%rbp),%rdx
  404220:	89 0a                	mov    %ecx,(%rdx)
  404222:	eb 14                	jmp    404238 <sys__llseek+0x175>
  404224:	48 8b 45 c8          	mov    -0x38(%rbp),%rax
  404228:	48 8b 40 08          	mov    0x8(%rax),%rax
  40422c:	48 8d 50 08          	lea    0x8(%rax),%rdx
  404230:	48 8b 4d c8          	mov    -0x38(%rbp),%rcx
  404234:	48 89 51 08          	mov    %rdx,0x8(%rcx)
  404238:	8b 00                	mov    (%rax),%eax
  40423a:	89 45 e4             	mov    %eax,-0x1c(%rbp)
  40423d:	8b 75 e4             	mov    -0x1c(%rbp),%esi
  404240:	8b 4d f8             	mov    -0x8(%rbp),%ecx
  404243:	8b 55 f4             	mov    -0xc(%rbp),%edx
  404246:	8b 45 fc             	mov    -0x4(%rbp),%eax
  404249:	41 89 f0             	mov    %esi,%r8d
  40424c:	89 c6                	mov    %eax,%esi
  40424e:	bf 08 00 00 00       	mov    $0x8,%edi
  404253:	b8 00 00 00 00       	mov    $0x0,%eax
  404258:	e8 6f 7b 00 00       	callq  40bdcc <syscall>
  40425d:	48 89 45 d8          	mov    %rax,-0x28(%rbp)
  404261:	48 83 7d d8 ff       	cmpq   $0xffffffffffffffff,-0x28(%rbp)
  404266:	75 0e                	jne    404276 <sys__llseek+0x1b3>
  404268:	64 8b 04 25 f8 ff ff 	mov    %fs:0xfffffffffffffff8,%eax
  40426f:	ff 
  404270:	f7 d8                	neg    %eax
  404272:	48 98                	cltq   
  404274:	eb 17                	jmp    40428d <sys__llseek+0x1ca>
  404276:	48 83 7d e8 00       	cmpq   $0x0,-0x18(%rbp)
  40427b:	74 0b                	je     404288 <sys__llseek+0x1c5>
  40427d:	48 8b 45 e8          	mov    -0x18(%rbp),%rax
  404281:	48 8b 55 d8          	mov    -0x28(%rbp),%rdx
  404285:	48 89 10             	mov    %rdx,(%rax)
  404288:	b8 00 00 00 00       	mov    $0x0,%eax
  40428d:	c9                   	leaveq 
  40428e:	c3                   	retq   

000000000040428f <sys_access>:
  40428f:	f3 0f 1e fa          	endbr64 
  404293:	55                   	push   %rbp
  404294:	48 89 e5             	mov    %rsp,%rbp
  404297:	48 83 ec 20          	sub    $0x20,%rsp
  40429b:	48 89 7d e8          	mov    %rdi,-0x18(%rbp)
  40429f:	48 8b 45 e8          	mov    -0x18(%rbp),%rax
  4042a3:	8b 00                	mov    (%rax),%eax
  4042a5:	83 f8 2f             	cmp    $0x2f,%eax
  4042a8:	77 24                	ja     4042ce <sys_access+0x3f>
  4042aa:	48 8b 45 e8          	mov    -0x18(%rbp),%rax
  4042ae:	48 8b 50 10          	mov    0x10(%rax),%rdx
  4042b2:	48 8b 45 e8          	mov    -0x18(%rbp),%rax
  4042b6:	8b 00                	mov    (%rax),%eax
  4042b8:	89 c0                	mov    %eax,%eax
  4042ba:	48 01 d0             	add    %rdx,%rax
  4042bd:	48 8b 55 e8          	mov    -0x18(%rbp),%rdx
  4042c1:	8b 12                	mov    (%rdx),%edx
  4042c3:	8d 4a 08             	lea    0x8(%rdx),%ecx
  4042c6:	48 8b 55 e8          	mov    -0x18(%rbp),%rdx
  4042ca:	89 0a                	mov    %ecx,(%rdx)
  4042cc:	eb 14                	jmp    4042e2 <sys_access+0x53>
  4042ce:	48 8b 45 e8          	mov    -0x18(%rbp),%rax
  4042d2:	48 8b 40 08          	mov    0x8(%rax),%rax
  4042d6:	48 8d 50 08          	lea    0x8(%rax),%rdx
  4042da:	48 8b 4d e8          	mov    -0x18(%rbp),%rcx
  4042de:	48 89 51 08          	mov    %rdx,0x8(%rcx)
  4042e2:	48 8b 00             	mov    (%rax),%rax
  4042e5:	48 89 45 f8          	mov    %rax,-0x8(%rbp)
  4042e9:	48 8b 45 e8          	mov    -0x18(%rbp),%rax
  4042ed:	8b 00                	mov    (%rax),%eax
  4042ef:	83 f8 2f             	cmp    $0x2f,%eax
  4042f2:	77 24                	ja     404318 <sys_access+0x89>
  4042f4:	48 8b 45 e8          	mov    -0x18(%rbp),%rax
  4042f8:	48 8b 50 10          	mov    0x10(%rax),%rdx
  4042fc:	48 8b 45 e8          	mov    -0x18(%rbp),%rax
  404300:	8b 00                	mov    (%rax),%eax
  404302:	89 c0                	mov    %eax,%eax
  404304:	48 01 d0             	add    %rdx,%rax
  404307:	48 8b 55 e8          	mov    -0x18(%rbp),%rdx
  40430b:	8b 12                	mov    (%rdx),%edx
  40430d:	8d 4a 08             	lea    0x8(%rdx),%ecx
  404310:	48 8b 55 e8          	mov    -0x18(%rbp),%rdx
  404314:	89 0a                	mov    %ecx,(%rdx)
  404316:	eb 14                	jmp    40432c <sys_access+0x9d>
  404318:	48 8b 45 e8          	mov    -0x18(%rbp),%rax
  40431c:	48 8b 40 08          	mov    0x8(%rax),%rax
  404320:	48 8d 50 08          	lea    0x8(%rax),%rdx
  404324:	48 8b 4d e8          	mov    -0x18(%rbp),%rcx
  404328:	48 89 51 08          	mov    %rdx,0x8(%rcx)
  40432c:	8b 00                	mov    (%rax),%eax
  40432e:	89 45 f4             	mov    %eax,-0xc(%rbp)
  404331:	83 7d f4 00          	cmpl   $0x0,-0xc(%rbp)
  404335:	74 06                	je     40433d <sys_access+0xae>
  404337:	83 7d f4 04          	cmpl   $0x4,-0xc(%rbp)
  40433b:	75 3e                	jne    40437b <sys_access+0xec>
  40433d:	48 8b 45 f8          	mov    -0x8(%rbp),%rax
  404341:	ba 00 00 00 00       	mov    $0x0,%edx
  404346:	be 00 00 00 00       	mov    $0x0,%esi
  40434b:	48 89 c7             	mov    %rax,%rdi
  40434e:	b8 00 00 00 00       	mov    $0x0,%eax
  404353:	e8 08 70 00 00       	callq  40b360 <open>
  404358:	89 45 f0             	mov    %eax,-0x10(%rbp)
  40435b:	83 7d f0 00          	cmpl   $0x0,-0x10(%rbp)
  40435f:	79 09                	jns    40436a <sys_access+0xdb>
  404361:	48 c7 c0 f3 ff ff ff 	mov    $0xfffffffffffffff3,%rax
  404368:	eb 5a                	jmp    4043c4 <sys_access+0x135>
  40436a:	8b 45 f0             	mov    -0x10(%rbp),%eax
  40436d:	89 c7                	mov    %eax,%edi
  40436f:	e8 34 a1 00 00       	callq  40e4a8 <close>
  404374:	b8 00 00 00 00       	mov    $0x0,%eax
  404379:	eb 49                	jmp    4043c4 <sys_access+0x135>
  40437b:	8b 05 df d0 01 00    	mov    0x1d0df(%rip),%eax        # 421460 <_zf_log_output_lvl>
  404381:	83 f8 05             	cmp    $0x5,%eax
  404384:	7f 37                	jg     4043bd <sys_access+0x12e>
  404386:	48 83 ec 08          	sub    $0x8,%rsp
  40438a:	68 80 23 41 00       	pushq  $0x412380
  40438f:	41 b9 a1 22 41 00    	mov    $0x4122a1,%r9d
  404395:	41 b8 00 00 00 00    	mov    $0x0,%r8d
  40439b:	b9 05 00 00 00       	mov    $0x5,%ecx
  4043a0:	ba 11 02 00 00       	mov    $0x211,%edx
  4043a5:	be 68 20 41 00       	mov    $0x412068,%esi
  4043aa:	bf 70 23 41 00       	mov    $0x412370,%edi
  4043af:	b8 00 00 00 00       	mov    $0x0,%eax
  4043b4:	e8 c6 67 00 00       	callq  40ab7f <_zf_log_write_d>
  4043b9:	48 83 c4 10          	add    $0x10,%rsp
  4043bd:	48 c7 c0 f3 ff ff ff 	mov    $0xfffffffffffffff3,%rax
  4043c4:	c9                   	leaveq 
  4043c5:	c3                   	retq   

00000000004043c6 <muslcsys_install_cpio_interface>:
  4043c6:	f3 0f 1e fa          	endbr64 
  4043ca:	55                   	push   %rbp
  4043cb:	48 89 e5             	mov    %rsp,%rbp
  4043ce:	48 89 7d f8          	mov    %rdi,-0x8(%rbp)
  4043d2:	48 89 75 f0          	mov    %rsi,-0x10(%rbp)
  4043d6:	48 89 55 e8          	mov    %rdx,-0x18(%rbp)
  4043da:	48 8b 45 f8          	mov    -0x8(%rbp),%rax
  4043de:	48 89 05 db cc 01 00 	mov    %rax,0x1ccdb(%rip)        # 4210c0 <cpio_archive_symbol>
  4043e5:	48 8b 45 f0          	mov    -0x10(%rbp),%rax
  4043e9:	48 89 05 d8 cc 01 00 	mov    %rax,0x1ccd8(%rip)        # 4210c8 <cpio_archive_len>
  4043f0:	48 8b 45 e8          	mov    -0x18(%rbp),%rax
  4043f4:	48 89 05 d5 cc 01 00 	mov    %rax,0x1ccd5(%rip)        # 4210d0 <cpio_get_file_impl>
  4043fb:	90                   	nop
  4043fc:	5d                   	pop    %rbp
  4043fd:	c3                   	retq   

00000000004043fe <seL4_MessageInfo_new>:
  4043fe:	55                   	push   %rbp
  4043ff:	48 89 e5             	mov    %rsp,%rbp
  404402:	48 83 ec 30          	sub    $0x30,%rsp
  404406:	48 89 7d e8          	mov    %rdi,-0x18(%rbp)
  40440a:	48 89 75 e0          	mov    %rsi,-0x20(%rbp)
  40440e:	48 89 55 d8          	mov    %rdx,-0x28(%rbp)
  404412:	48 89 4d d0          	mov    %rcx,-0x30(%rbp)
  404416:	48 b8 00 00 00 00 00 	movabs $0xfff0000000000000,%rax
  40441d:	00 f0 ff 
  404420:	48 23 45 e8          	and    -0x18(%rbp),%rax
  404424:	48 85 c0             	test   %rax,%rax
  404427:	74 19                	je     404442 <seL4_MessageInfo_new+0x44>
  404429:	b9 f0 26 41 00       	mov    $0x4126f0,%ecx
  40442e:	ba 42 01 00 00       	mov    $0x142,%edx
  404433:	be 98 23 41 00       	mov    $0x412398,%esi
  404438:	bf c0 23 41 00       	mov    $0x4123c0,%edi
  40443d:	e8 c2 6e 00 00       	callq  40b304 <__assert_fail>
  404442:	48 8b 45 e0          	mov    -0x20(%rbp),%rax
  404446:	48 83 e0 f8          	and    $0xfffffffffffffff8,%rax
  40444a:	48 85 c0             	test   %rax,%rax
  40444d:	74 19                	je     404468 <seL4_MessageInfo_new+0x6a>
  40444f:	b9 f0 26 41 00       	mov    $0x4126f0,%ecx
  404454:	ba 43 01 00 00       	mov    $0x143,%edx
  404459:	be 98 23 41 00       	mov    $0x412398,%esi
  40445e:	bf 10 24 41 00       	mov    $0x412410,%edi
  404463:	e8 9c 6e 00 00       	callq  40b304 <__assert_fail>
  404468:	48 8b 45 d8          	mov    -0x28(%rbp),%rax
  40446c:	48 83 e0 fc          	and    $0xfffffffffffffffc,%rax
  404470:	48 85 c0             	test   %rax,%rax
  404473:	74 19                	je     40448e <seL4_MessageInfo_new+0x90>
  404475:	b9 f0 26 41 00       	mov    $0x4126f0,%ecx
  40447a:	ba 44 01 00 00       	mov    $0x144,%edx
  40447f:	be 98 23 41 00       	mov    $0x412398,%esi
  404484:	bf 60 24 41 00       	mov    $0x412460,%edi
  404489:	e8 76 6e 00 00       	callq  40b304 <__assert_fail>
  40448e:	48 8b 45 d0          	mov    -0x30(%rbp),%rax
  404492:	48 83 e0 80          	and    $0xffffffffffffff80,%rax
  404496:	48 85 c0             	test   %rax,%rax
  404499:	74 19                	je     4044b4 <seL4_MessageInfo_new+0xb6>
  40449b:	b9 f0 26 41 00       	mov    $0x4126f0,%ecx
  4044a0:	ba 45 01 00 00       	mov    $0x145,%edx
  4044a5:	be 98 23 41 00       	mov    $0x412398,%esi
  4044aa:	bf a8 24 41 00       	mov    $0x4124a8,%edi
  4044af:	e8 50 6e 00 00       	callq  40b304 <__assert_fail>
  4044b4:	48 8b 45 e8          	mov    -0x18(%rbp),%rax
  4044b8:	48 c1 e0 0c          	shl    $0xc,%rax
  4044bc:	48 89 c2             	mov    %rax,%rdx
  4044bf:	48 8b 45 e0          	mov    -0x20(%rbp),%rax
  4044c3:	48 c1 e0 09          	shl    $0x9,%rax
  4044c7:	25 00 0e 00 00       	and    $0xe00,%eax
  4044cc:	48 09 c2             	or     %rax,%rdx
  4044cf:	48 8b 45 d8          	mov    -0x28(%rbp),%rax
  4044d3:	48 c1 e0 07          	shl    $0x7,%rax
  4044d7:	25 80 01 00 00       	and    $0x180,%eax
  4044dc:	48 09 c2             	or     %rax,%rdx
  4044df:	48 8b 45 d0          	mov    -0x30(%rbp),%rax
  4044e3:	83 e0 7f             	and    $0x7f,%eax
  4044e6:	48 09 d0             	or     %rdx,%rax
  4044e9:	48 89 45 f8          	mov    %rax,-0x8(%rbp)
  4044ed:	48 8b 45 f8          	mov    -0x8(%rbp),%rax
  4044f1:	c9                   	leaveq 
  4044f2:	c3                   	retq   

00000000004044f3 <seL4_MessageInfo_get_label>:
  4044f3:	55                   	push   %rbp
  4044f4:	48 89 e5             	mov    %rsp,%rbp
  4044f7:	48 89 7d e8          	mov    %rdi,-0x18(%rbp)
  4044fb:	48 8b 45 e8          	mov    -0x18(%rbp),%rax
  4044ff:	48 c1 e8 0c          	shr    $0xc,%rax
  404503:	48 89 45 f8          	mov    %rax,-0x8(%rbp)
  404507:	48 8b 45 f8          	mov    -0x8(%rbp),%rax
  40450b:	5d                   	pop    %rbp
  40450c:	c3                   	retq   

000000000040450d <seL4_MessageInfo_get_length>:
  40450d:	55                   	push   %rbp
  40450e:	48 89 e5             	mov    %rsp,%rbp
  404511:	48 89 7d e8          	mov    %rdi,-0x18(%rbp)
  404515:	48 8b 45 e8          	mov    -0x18(%rbp),%rax
  404519:	83 e0 7f             	and    $0x7f,%eax
  40451c:	48 89 45 f8          	mov    %rax,-0x8(%rbp)
  404520:	48 8b 45 f8          	mov    -0x8(%rbp),%rax
  404524:	5d                   	pop    %rbp
  404525:	c3                   	retq   

0000000000404526 <seL4_GetIPCBuffer>:
  404526:	55                   	push   %rbp
  404527:	48 89 e5             	mov    %rsp,%rbp
  40452a:	64 48 8b 04 25 f0 ff 	mov    %fs:0xfffffffffffffff0,%rax
  404531:	ff ff 
  404533:	5d                   	pop    %rbp
  404534:	c3                   	retq   

0000000000404535 <seL4_SetMR>:
  404535:	55                   	push   %rbp
  404536:	48 89 e5             	mov    %rsp,%rbp
  404539:	48 83 ec 10          	sub    $0x10,%rsp
  40453d:	89 7d fc             	mov    %edi,-0x4(%rbp)
  404540:	48 89 75 f0          	mov    %rsi,-0x10(%rbp)
  404544:	e8 dd ff ff ff       	callq  404526 <seL4_GetIPCBuffer>
  404549:	8b 55 fc             	mov    -0x4(%rbp),%edx
  40454c:	48 63 d2             	movslq %edx,%rdx
  40454f:	48 8b 4d f0          	mov    -0x10(%rbp),%rcx
  404553:	48 89 4c d0 08       	mov    %rcx,0x8(%rax,%rdx,8)
  404558:	90                   	nop
  404559:	c9                   	leaveq 
  40455a:	c3                   	retq   

000000000040455b <x64_sys_send_recv>:
  40455b:	55                   	push   %rbp
  40455c:	48 89 e5             	mov    %rsp,%rbp
  40455f:	41 57                	push   %r15
  404561:	53                   	push   %rbx
  404562:	48 89 7d e8          	mov    %rdi,-0x18(%rbp)
  404566:	48 89 75 e0          	mov    %rsi,-0x20(%rbp)
  40456a:	48 89 55 d8          	mov    %rdx,-0x28(%rbp)
  40456e:	48 89 4d d0          	mov    %rcx,-0x30(%rbp)
  404572:	4c 89 45 c8          	mov    %r8,-0x38(%rbp)
  404576:	4c 89 4d c0          	mov    %r9,-0x40(%rbp)
  40457a:	48 8b 45 c0          	mov    -0x40(%rbp),%rax
  40457e:	48 8b 00             	mov    (%rax),%rax
  404581:	49 89 c2             	mov    %rax,%r10
  404584:	48 8b 45 10          	mov    0x10(%rbp),%rax
  404588:	48 8b 00             	mov    (%rax),%rax
  40458b:	49 89 c0             	mov    %rax,%r8
  40458e:	48 8b 45 18          	mov    0x18(%rbp),%rax
  404592:	48 8b 00             	mov    (%rax),%rax
  404595:	49 89 c1             	mov    %rax,%r9
  404598:	48 8b 45 20          	mov    0x20(%rbp),%rax
  40459c:	48 8b 00             	mov    (%rax),%rax
  40459f:	49 89 c7             	mov    %rax,%r15
  4045a2:	48 8b 45 e8          	mov    -0x18(%rbp),%rax
  4045a6:	48 8b 7d e0          	mov    -0x20(%rbp),%rdi
  4045aa:	48 8b 75 d0          	mov    -0x30(%rbp),%rsi
  4045ae:	48 89 c2             	mov    %rax,%rdx
  4045b1:	48 89 e3             	mov    %rsp,%rbx
  4045b4:	0f 05                	syscall 
  4045b6:	48 89 dc             	mov    %rbx,%rsp
  4045b9:	48 89 f8             	mov    %rdi,%rax
  4045bc:	48 89 f2             	mov    %rsi,%rdx
  4045bf:	48 8b 4d c8          	mov    -0x38(%rbp),%rcx
  4045c3:	48 89 11             	mov    %rdx,(%rcx)
  4045c6:	48 8b 55 d8          	mov    -0x28(%rbp),%rdx
  4045ca:	48 89 02             	mov    %rax,(%rdx)
  4045cd:	4c 89 d2             	mov    %r10,%rdx
  4045d0:	48 8b 45 c0          	mov    -0x40(%rbp),%rax
  4045d4:	48 89 10             	mov    %rdx,(%rax)
  4045d7:	4c 89 c2             	mov    %r8,%rdx
  4045da:	48 8b 45 10          	mov    0x10(%rbp),%rax
  4045de:	48 89 10             	mov    %rdx,(%rax)
  4045e1:	4c 89 ca             	mov    %r9,%rdx
  4045e4:	48 8b 45 18          	mov    0x18(%rbp),%rax
  4045e8:	48 89 10             	mov    %rdx,(%rax)
  4045eb:	4c 89 fa             	mov    %r15,%rdx
  4045ee:	48 8b 45 20          	mov    0x20(%rbp),%rax
  4045f2:	48 89 10             	mov    %rdx,(%rax)
  4045f5:	90                   	nop
  4045f6:	5b                   	pop    %rbx
  4045f7:	41 5f                	pop    %r15
  4045f9:	5d                   	pop    %rbp
  4045fa:	c3                   	retq   

00000000004045fb <seL4_CallWithMRs>:
  4045fb:	55                   	push   %rbp
  4045fc:	48 89 e5             	mov    %rsp,%rbp
  4045ff:	48 83 ec 60          	sub    $0x60,%rsp
  404603:	48 89 7d c8          	mov    %rdi,-0x38(%rbp)
  404607:	48 89 75 c0          	mov    %rsi,-0x40(%rbp)
  40460b:	48 89 55 b8          	mov    %rdx,-0x48(%rbp)
  40460f:	48 89 4d b0          	mov    %rcx,-0x50(%rbp)
  404613:	4c 89 45 a8          	mov    %r8,-0x58(%rbp)
  404617:	4c 89 4d a0          	mov    %r9,-0x60(%rbp)
  40461b:	48 c7 45 f0 00 00 00 	movq   $0x0,-0x10(%rbp)
  404622:	00 
  404623:	48 c7 45 e8 00 00 00 	movq   $0x0,-0x18(%rbp)
  40462a:	00 
  40462b:	48 c7 45 e0 00 00 00 	movq   $0x0,-0x20(%rbp)
  404632:	00 
  404633:	48 c7 45 d8 00 00 00 	movq   $0x0,-0x28(%rbp)
  40463a:	00 
  40463b:	48 83 7d b8 00       	cmpq   $0x0,-0x48(%rbp)
  404640:	74 1c                	je     40465e <seL4_CallWithMRs+0x63>
  404642:	48 8b 45 c0          	mov    -0x40(%rbp),%rax
  404646:	48 89 c7             	mov    %rax,%rdi
  404649:	e8 bf fe ff ff       	callq  40450d <seL4_MessageInfo_get_length>
  40464e:	48 85 c0             	test   %rax,%rax
  404651:	74 0b                	je     40465e <seL4_CallWithMRs+0x63>
  404653:	48 8b 45 b8          	mov    -0x48(%rbp),%rax
  404657:	48 8b 00             	mov    (%rax),%rax
  40465a:	48 89 45 f0          	mov    %rax,-0x10(%rbp)
  40465e:	48 83 7d b0 00       	cmpq   $0x0,-0x50(%rbp)
  404663:	74 1d                	je     404682 <seL4_CallWithMRs+0x87>
  404665:	48 8b 45 c0          	mov    -0x40(%rbp),%rax
  404669:	48 89 c7             	mov    %rax,%rdi
  40466c:	e8 9c fe ff ff       	callq  40450d <seL4_MessageInfo_get_length>
  404671:	48 83 f8 01          	cmp    $0x1,%rax
  404675:	76 0b                	jbe    404682 <seL4_CallWithMRs+0x87>
  404677:	48 8b 45 b0          	mov    -0x50(%rbp),%rax
  40467b:	48 8b 00             	mov    (%rax),%rax
  40467e:	48 89 45 e8          	mov    %rax,-0x18(%rbp)
  404682:	48 83 7d a8 00       	cmpq   $0x0,-0x58(%rbp)
  404687:	74 1d                	je     4046a6 <seL4_CallWithMRs+0xab>
  404689:	48 8b 45 c0          	mov    -0x40(%rbp),%rax
  40468d:	48 89 c7             	mov    %rax,%rdi
  404690:	e8 78 fe ff ff       	callq  40450d <seL4_MessageInfo_get_length>
  404695:	48 83 f8 02          	cmp    $0x2,%rax
  404699:	76 0b                	jbe    4046a6 <seL4_CallWithMRs+0xab>
  40469b:	48 8b 45 a8          	mov    -0x58(%rbp),%rax
  40469f:	48 8b 00             	mov    (%rax),%rax
  4046a2:	48 89 45 e0          	mov    %rax,-0x20(%rbp)
  4046a6:	48 83 7d a0 00       	cmpq   $0x0,-0x60(%rbp)
  4046ab:	74 1d                	je     4046ca <seL4_CallWithMRs+0xcf>
  4046ad:	48 8b 45 c0          	mov    -0x40(%rbp),%rax
  4046b1:	48 89 c7             	mov    %rax,%rdi
  4046b4:	e8 54 fe ff ff       	callq  40450d <seL4_MessageInfo_get_length>
  4046b9:	48 83 f8 03          	cmp    $0x3,%rax
  4046bd:	76 0b                	jbe    4046ca <seL4_CallWithMRs+0xcf>
  4046bf:	48 8b 45 a0          	mov    -0x60(%rbp),%rax
  4046c3:	48 8b 00             	mov    (%rax),%rax
  4046c6:	48 89 45 d8          	mov    %rax,-0x28(%rbp)
  4046ca:	48 8b 55 c0          	mov    -0x40(%rbp),%rdx
  4046ce:	48 8b 75 c8          	mov    -0x38(%rbp),%rsi
  4046d2:	4c 8d 45 f0          	lea    -0x10(%rbp),%r8
  4046d6:	48 8d 7d f8          	lea    -0x8(%rbp),%rdi
  4046da:	48 8d 45 c8          	lea    -0x38(%rbp),%rax
  4046de:	6a 00                	pushq  $0x0
  4046e0:	48 8d 4d d8          	lea    -0x28(%rbp),%rcx
  4046e4:	51                   	push   %rcx
  4046e5:	48 8d 4d e0          	lea    -0x20(%rbp),%rcx
  4046e9:	51                   	push   %rcx
  4046ea:	48 8d 4d e8          	lea    -0x18(%rbp),%rcx
  4046ee:	51                   	push   %rcx
  4046ef:	4d 89 c1             	mov    %r8,%r9
  4046f2:	49 89 f8             	mov    %rdi,%r8
  4046f5:	48 89 d1             	mov    %rdx,%rcx
  4046f8:	48 89 c2             	mov    %rax,%rdx
  4046fb:	48 c7 c7 ff ff ff ff 	mov    $0xffffffffffffffff,%rdi
  404702:	e8 54 fe ff ff       	callq  40455b <x64_sys_send_recv>
  404707:	48 83 c4 20          	add    $0x20,%rsp
  40470b:	48 83 7d b8 00       	cmpq   $0x0,-0x48(%rbp)
  404710:	74 0b                	je     40471d <seL4_CallWithMRs+0x122>
  404712:	48 8b 55 f0          	mov    -0x10(%rbp),%rdx
  404716:	48 8b 45 b8          	mov    -0x48(%rbp),%rax
  40471a:	48 89 10             	mov    %rdx,(%rax)
  40471d:	48 83 7d b0 00       	cmpq   $0x0,-0x50(%rbp)
  404722:	74 0b                	je     40472f <seL4_CallWithMRs+0x134>
  404724:	48 8b 55 e8          	mov    -0x18(%rbp),%rdx
  404728:	48 8b 45 b0          	mov    -0x50(%rbp),%rax
  40472c:	48 89 10             	mov    %rdx,(%rax)
  40472f:	48 83 7d a8 00       	cmpq   $0x0,-0x58(%rbp)
  404734:	74 0b                	je     404741 <seL4_CallWithMRs+0x146>
  404736:	48 8b 55 e0          	mov    -0x20(%rbp),%rdx
  40473a:	48 8b 45 a8          	mov    -0x58(%rbp),%rax
  40473e:	48 89 10             	mov    %rdx,(%rax)
  404741:	48 83 7d a0 00       	cmpq   $0x0,-0x60(%rbp)
  404746:	74 0b                	je     404753 <seL4_CallWithMRs+0x158>
  404748:	48 8b 55 d8          	mov    -0x28(%rbp),%rdx
  40474c:	48 8b 45 a0          	mov    -0x60(%rbp),%rax
  404750:	48 89 10             	mov    %rdx,(%rax)
  404753:	48 8b 45 f8          	mov    -0x8(%rbp),%rax
  404757:	c9                   	leaveq 
  404758:	c3                   	retq   

0000000000404759 <seL4_DebugPutChar>:
  404759:	55                   	push   %rbp
  40475a:	48 89 e5             	mov    %rsp,%rbp
  40475d:	48 83 ec 38          	sub    $0x38,%rsp
  404761:	89 f8                	mov    %edi,%eax
  404763:	88 45 cc             	mov    %al,-0x34(%rbp)
  404766:	48 c7 45 f8 00 00 00 	movq   $0x0,-0x8(%rbp)
  40476d:	00 
  40476e:	48 c7 45 f0 00 00 00 	movq   $0x0,-0x10(%rbp)
  404775:	00 
  404776:	48 c7 45 e8 00 00 00 	movq   $0x0,-0x18(%rbp)
  40477d:	00 
  40477e:	48 c7 45 e0 00 00 00 	movq   $0x0,-0x20(%rbp)
  404785:	00 
  404786:	48 c7 45 d8 00 00 00 	movq   $0x0,-0x28(%rbp)
  40478d:	00 
  40478e:	48 c7 45 d0 00 00 00 	movq   $0x0,-0x30(%rbp)
  404795:	00 
  404796:	48 0f be 45 cc       	movsbq -0x34(%rbp),%rax
  40479b:	48 8d 7d e8          	lea    -0x18(%rbp),%rdi
  40479f:	48 8d 75 f0          	lea    -0x10(%rbp),%rsi
  4047a3:	48 8d 55 f8          	lea    -0x8(%rbp),%rdx
  4047a7:	6a 00                	pushq  $0x0
  4047a9:	48 8d 4d d0          	lea    -0x30(%rbp),%rcx
  4047ad:	51                   	push   %rcx
  4047ae:	48 8d 4d d8          	lea    -0x28(%rbp),%rcx
  4047b2:	51                   	push   %rcx
  4047b3:	48 8d 4d e0          	lea    -0x20(%rbp),%rcx
  4047b7:	51                   	push   %rcx
  4047b8:	49 89 f9             	mov    %rdi,%r9
  4047bb:	49 89 f0             	mov    %rsi,%r8
  4047be:	b9 00 00 00 00       	mov    $0x0,%ecx
  4047c3:	48 89 c6             	mov    %rax,%rsi
  4047c6:	48 c7 c7 f7 ff ff ff 	mov    $0xfffffffffffffff7,%rdi
  4047cd:	e8 89 fd ff ff       	callq  40455b <x64_sys_send_recv>
  4047d2:	48 83 c4 20          	add    $0x20,%rsp
  4047d6:	90                   	nop
  4047d7:	c9                   	leaveq 
  4047d8:	c3                   	retq   

00000000004047d9 <seL4_TCB_SetTLSBase>:
  4047d9:	55                   	push   %rbp
  4047da:	48 89 e5             	mov    %rsp,%rbp
  4047dd:	48 83 ec 50          	sub    $0x50,%rsp
  4047e1:	48 89 7d b8          	mov    %rdi,-0x48(%rbp)
  4047e5:	48 89 75 b0          	mov    %rsi,-0x50(%rbp)
  4047e9:	b9 01 00 00 00       	mov    $0x1,%ecx
  4047ee:	ba 00 00 00 00       	mov    $0x0,%edx
  4047f3:	be 00 00 00 00       	mov    $0x0,%esi
  4047f8:	bf 0f 00 00 00       	mov    $0xf,%edi
  4047fd:	e8 fc fb ff ff       	callq  4043fe <seL4_MessageInfo_new>
  404802:	48 89 45 f0          	mov    %rax,-0x10(%rbp)
  404806:	48 8b 45 b0          	mov    -0x50(%rbp),%rax
  40480a:	48 89 45 e0          	mov    %rax,-0x20(%rbp)
  40480e:	48 c7 45 d8 00 00 00 	movq   $0x0,-0x28(%rbp)
  404815:	00 
  404816:	48 c7 45 d0 00 00 00 	movq   $0x0,-0x30(%rbp)
  40481d:	00 
  40481e:	48 c7 45 c8 00 00 00 	movq   $0x0,-0x38(%rbp)
  404825:	00 
  404826:	4c 8d 45 c8          	lea    -0x38(%rbp),%r8
  40482a:	48 8d 4d d0          	lea    -0x30(%rbp),%rcx
  40482e:	48 8d 55 d8          	lea    -0x28(%rbp),%rdx
  404832:	48 8d 45 e0          	lea    -0x20(%rbp),%rax
  404836:	48 8b 75 f0          	mov    -0x10(%rbp),%rsi
  40483a:	48 8b 7d b8          	mov    -0x48(%rbp),%rdi
  40483e:	4d 89 c1             	mov    %r8,%r9
  404841:	49 89 c8             	mov    %rcx,%r8
  404844:	48 89 d1             	mov    %rdx,%rcx
  404847:	48 89 c2             	mov    %rax,%rdx
  40484a:	e8 ac fd ff ff       	callq  4045fb <seL4_CallWithMRs>
  40484f:	48 89 45 e8          	mov    %rax,-0x18(%rbp)
  404853:	48 8b 45 e8          	mov    -0x18(%rbp),%rax
  404857:	48 89 c7             	mov    %rax,%rdi
  40485a:	e8 94 fc ff ff       	callq  4044f3 <seL4_MessageInfo_get_label>
  40485f:	89 45 fc             	mov    %eax,-0x4(%rbp)
  404862:	83 7d fc 00          	cmpl   $0x0,-0x4(%rbp)
  404866:	74 44                	je     4048ac <seL4_TCB_SetTLSBase+0xd3>
  404868:	48 8b 45 e0          	mov    -0x20(%rbp),%rax
  40486c:	48 89 c6             	mov    %rax,%rsi
  40486f:	bf 00 00 00 00       	mov    $0x0,%edi
  404874:	e8 bc fc ff ff       	callq  404535 <seL4_SetMR>
  404879:	48 8b 45 d8          	mov    -0x28(%rbp),%rax
  40487d:	48 89 c6             	mov    %rax,%rsi
  404880:	bf 01 00 00 00       	mov    $0x1,%edi
  404885:	e8 ab fc ff ff       	callq  404535 <seL4_SetMR>
  40488a:	48 8b 45 d0          	mov    -0x30(%rbp),%rax
  40488e:	48 89 c6             	mov    %rax,%rsi
  404891:	bf 02 00 00 00       	mov    $0x2,%edi
  404896:	e8 9a fc ff ff       	callq  404535 <seL4_SetMR>
  40489b:	48 8b 45 c8          	mov    -0x38(%rbp),%rax
  40489f:	48 89 c6             	mov    %rax,%rsi
  4048a2:	bf 03 00 00 00       	mov    $0x3,%edi
  4048a7:	e8 89 fc ff ff       	callq  404535 <seL4_SetMR>
  4048ac:	8b 45 fc             	mov    -0x4(%rbp),%eax
  4048af:	c9                   	leaveq 
  4048b0:	c3                   	retq   

00000000004048b1 <boot_set_thread_area>:
  4048b1:	f3 0f 1e fa          	endbr64 
  4048b5:	55                   	push   %rbp
  4048b6:	48 89 e5             	mov    %rsp,%rbp
  4048b9:	48 83 ec 30          	sub    $0x30,%rsp
  4048bd:	48 89 7d d8          	mov    %rdi,-0x28(%rbp)
  4048c1:	48 8b 45 d8          	mov    -0x28(%rbp),%rax
  4048c5:	8b 00                	mov    (%rax),%eax
  4048c7:	83 f8 2f             	cmp    $0x2f,%eax
  4048ca:	77 24                	ja     4048f0 <boot_set_thread_area+0x3f>
  4048cc:	48 8b 45 d8          	mov    -0x28(%rbp),%rax
  4048d0:	48 8b 50 10          	mov    0x10(%rax),%rdx
  4048d4:	48 8b 45 d8          	mov    -0x28(%rbp),%rax
  4048d8:	8b 00                	mov    (%rax),%eax
  4048da:	89 c0                	mov    %eax,%eax
  4048dc:	48 01 d0             	add    %rdx,%rax
  4048df:	48 8b 55 d8          	mov    -0x28(%rbp),%rdx
  4048e3:	8b 12                	mov    (%rdx),%edx
  4048e5:	8d 4a 08             	lea    0x8(%rdx),%ecx
  4048e8:	48 8b 55 d8          	mov    -0x28(%rbp),%rdx
  4048ec:	89 0a                	mov    %ecx,(%rdx)
  4048ee:	eb 14                	jmp    404904 <boot_set_thread_area+0x53>
  4048f0:	48 8b 45 d8          	mov    -0x28(%rbp),%rax
  4048f4:	48 8b 40 08          	mov    0x8(%rax),%rax
  4048f8:	48 8d 50 08          	lea    0x8(%rax),%rdx
  4048fc:	48 8b 4d d8          	mov    -0x28(%rbp),%rcx
  404900:	48 89 51 08          	mov    %rdx,0x8(%rcx)
  404904:	48 8b 00             	mov    (%rax),%rax
  404907:	48 89 45 f8          	mov    %rax,-0x8(%rbp)
  40490b:	0f b6 05 ee c7 01 00 	movzbl 0x1c7ee(%rip),%eax        # 421100 <boot_set_thread_area_happened>
  404912:	84 c0                	test   %al,%al
  404914:	74 3e                	je     404954 <boot_set_thread_area+0xa3>
  404916:	8b 05 44 cb 01 00    	mov    0x1cb44(%rip),%eax        # 421460 <_zf_log_output_lvl>
  40491c:	83 f8 05             	cmp    $0x5,%eax
  40491f:	7f 2a                	jg     40494b <boot_set_thread_area+0x9a>
  404921:	41 b9 f0 24 41 00    	mov    $0x4124f0,%r9d
  404927:	41 b8 00 00 00 00    	mov    $0x0,%r8d
  40492d:	b9 05 00 00 00       	mov    $0x5,%ecx
  404932:	ba 28 00 00 00       	mov    $0x28,%edx
  404937:	be 30 25 41 00       	mov    $0x412530,%esi
  40493c:	bf d0 26 41 00       	mov    $0x4126d0,%edi
  404941:	b8 00 00 00 00       	mov    $0x0,%eax
  404946:	e8 34 62 00 00       	callq  40ab7f <_zf_log_write_d>
  40494b:	48 c7 c0 fd ff ff ff 	mov    $0xfffffffffffffffd,%rax
  404952:	eb 61                	jmp    4049b5 <boot_set_thread_area+0x104>
  404954:	bf 9b 25 41 00       	mov    $0x41259b,%edi
  404959:	e8 d6 68 00 00       	callq  40b234 <getenv>
  40495e:	48 89 45 f0          	mov    %rax,-0x10(%rbp)
  404962:	48 83 7d f0 00       	cmpq   $0x0,-0x10(%rbp)
  404967:	74 35                	je     40499e <boot_set_thread_area+0xed>
  404969:	48 8d 45 e8          	lea    -0x18(%rbp),%rax
  40496d:	48 8b 4d f0          	mov    -0x10(%rbp),%rcx
  404971:	48 89 c2             	mov    %rax,%rdx
  404974:	be a9 25 41 00       	mov    $0x4125a9,%esi
  404979:	48 89 cf             	mov    %rcx,%rdi
  40497c:	b8 00 00 00 00       	mov    $0x0,%eax
  404981:	e8 d5 7c 00 00       	callq  40c65b <sscanf>
  404986:	83 f8 01             	cmp    $0x1,%eax
  404989:	75 13                	jne    40499e <boot_set_thread_area+0xed>
  40498b:	48 8b 55 f8          	mov    -0x8(%rbp),%rdx
  40498f:	48 8b 45 e8          	mov    -0x18(%rbp),%rax
  404993:	48 89 d6             	mov    %rdx,%rsi
  404996:	48 89 c7             	mov    %rax,%rdi
  404999:	e8 3b fe ff ff       	callq  4047d9 <seL4_TCB_SetTLSBase>
  40499e:	c6 05 5b c7 01 00 01 	movb   $0x1,0x1c75b(%rip)        # 421100 <boot_set_thread_area_happened>
  4049a5:	48 8b 45 f8          	mov    -0x8(%rbp),%rax
  4049a9:	48 89 05 58 c7 01 00 	mov    %rax,0x1c758(%rip)        # 421108 <boot_set_thread_area_arg>
  4049b0:	b8 00 00 00 00       	mov    $0x0,%eax
  4049b5:	c9                   	leaveq 
  4049b6:	c3                   	retq   

00000000004049b7 <muslcsys_get_boot_set_thread_area>:
  4049b7:	f3 0f 1e fa          	endbr64 
  4049bb:	55                   	push   %rbp
  4049bc:	48 89 e5             	mov    %rsp,%rbp
  4049bf:	48 89 7d f8          	mov    %rdi,-0x8(%rbp)
  4049c3:	48 8b 15 3e c7 01 00 	mov    0x1c73e(%rip),%rdx        # 421108 <boot_set_thread_area_arg>
  4049ca:	48 8b 45 f8          	mov    -0x8(%rbp),%rax
  4049ce:	48 89 10             	mov    %rdx,(%rax)
  4049d1:	0f b6 05 28 c7 01 00 	movzbl 0x1c728(%rip),%eax        # 421100 <boot_set_thread_area_happened>
  4049d8:	5d                   	pop    %rbp
  4049d9:	c3                   	retq   

00000000004049da <boot_set_tid_address>:
  4049da:	f3 0f 1e fa          	endbr64 
  4049de:	55                   	push   %rbp
  4049df:	48 89 e5             	mov    %rsp,%rbp
  4049e2:	48 83 ec 20          	sub    $0x20,%rsp
  4049e6:	48 89 7d e8          	mov    %rdi,-0x18(%rbp)
  4049ea:	48 8b 45 e8          	mov    -0x18(%rbp),%rax
  4049ee:	8b 00                	mov    (%rax),%eax
  4049f0:	83 f8 2f             	cmp    $0x2f,%eax
  4049f3:	77 24                	ja     404a19 <boot_set_tid_address+0x3f>
  4049f5:	48 8b 45 e8          	mov    -0x18(%rbp),%rax
  4049f9:	48 8b 50 10          	mov    0x10(%rax),%rdx
  4049fd:	48 8b 45 e8          	mov    -0x18(%rbp),%rax
  404a01:	8b 00                	mov    (%rax),%eax
  404a03:	89 c0                	mov    %eax,%eax
  404a05:	48 01 d0             	add    %rdx,%rax
  404a08:	48 8b 55 e8          	mov    -0x18(%rbp),%rdx
  404a0c:	8b 12                	mov    (%rdx),%edx
  404a0e:	8d 4a 08             	lea    0x8(%rdx),%ecx
  404a11:	48 8b 55 e8          	mov    -0x18(%rbp),%rdx
  404a15:	89 0a                	mov    %ecx,(%rdx)
  404a17:	eb 14                	jmp    404a2d <boot_set_tid_address+0x53>
  404a19:	48 8b 45 e8          	mov    -0x18(%rbp),%rax
  404a1d:	48 8b 40 08          	mov    0x8(%rax),%rax
  404a21:	48 8d 50 08          	lea    0x8(%rax),%rdx
  404a25:	48 8b 4d e8          	mov    -0x18(%rbp),%rcx
  404a29:	48 89 51 08          	mov    %rdx,0x8(%rcx)
  404a2d:	48 8b 00             	mov    (%rax),%rax
  404a30:	48 89 45 f8          	mov    %rax,-0x8(%rbp)
  404a34:	0f b6 05 b5 c6 01 00 	movzbl 0x1c6b5(%rip),%eax        # 4210f0 <boot_set_tid_address_happened>
  404a3b:	84 c0                	test   %al,%al
  404a3d:	74 3c                	je     404a7b <boot_set_tid_address+0xa1>
  404a3f:	8b 05 1b ca 01 00    	mov    0x1ca1b(%rip),%eax        # 421460 <_zf_log_output_lvl>
  404a45:	83 f8 05             	cmp    $0x5,%eax
  404a48:	7f 2a                	jg     404a74 <boot_set_tid_address+0x9a>
  404a4a:	41 b9 b0 25 41 00    	mov    $0x4125b0,%r9d
  404a50:	41 b8 00 00 00 00    	mov    $0x0,%r8d
  404a56:	b9 05 00 00 00       	mov    $0x5,%ecx
  404a5b:	ba 4d 00 00 00       	mov    $0x4d,%edx
  404a60:	be 30 25 41 00       	mov    $0x412530,%esi
  404a65:	bf 10 27 41 00       	mov    $0x412710,%edi
  404a6a:	b8 00 00 00 00       	mov    $0x0,%eax
  404a6f:	e8 0b 61 00 00       	callq  40ab7f <_zf_log_write_d>
  404a74:	b8 01 00 00 00       	mov    $0x1,%eax
  404a79:	eb 17                	jmp    404a92 <boot_set_tid_address+0xb8>
  404a7b:	c6 05 6e c6 01 00 01 	movb   $0x1,0x1c66e(%rip)        # 4210f0 <boot_set_tid_address_happened>
  404a82:	48 8b 45 f8          	mov    -0x8(%rbp),%rax
  404a86:	48 89 05 6b c6 01 00 	mov    %rax,0x1c66b(%rip)        # 4210f8 <boot_set_tid_address_arg>
  404a8d:	b8 01 00 00 00       	mov    $0x1,%eax
  404a92:	c9                   	leaveq 
  404a93:	c3                   	retq   

0000000000404a94 <muslcsys_get_boot_set_tid_address>:
  404a94:	f3 0f 1e fa          	endbr64 
  404a98:	55                   	push   %rbp
  404a99:	48 89 e5             	mov    %rsp,%rbp
  404a9c:	48 89 7d f8          	mov    %rdi,-0x8(%rbp)
  404aa0:	48 8b 15 51 c6 01 00 	mov    0x1c651(%rip),%rdx        # 4210f8 <boot_set_tid_address_arg>
  404aa7:	48 8b 45 f8          	mov    -0x8(%rbp),%rax
  404aab:	48 89 10             	mov    %rdx,(%rax)
  404aae:	0f b6 05 3b c6 01 00 	movzbl 0x1c63b(%rip),%eax        # 4210f0 <boot_set_tid_address_happened>
  404ab5:	5d                   	pop    %rbp
  404ab6:	c3                   	retq   

0000000000404ab7 <boot_sys_writev>:
  404ab7:	f3 0f 1e fa          	endbr64 
  404abb:	55                   	push   %rbp
  404abc:	48 89 e5             	mov    %rsp,%rbp
  404abf:	48 83 ec 38          	sub    $0x38,%rsp
  404ac3:	48 89 7d c8          	mov    %rdi,-0x38(%rbp)
  404ac7:	48 8b 45 c8          	mov    -0x38(%rbp),%rax
  404acb:	8b 00                	mov    (%rax),%eax
  404acd:	83 f8 2f             	cmp    $0x2f,%eax
  404ad0:	77 24                	ja     404af6 <boot_sys_writev+0x3f>
  404ad2:	48 8b 45 c8          	mov    -0x38(%rbp),%rax
  404ad6:	48 8b 50 10          	mov    0x10(%rax),%rdx
  404ada:	48 8b 45 c8          	mov    -0x38(%rbp),%rax
  404ade:	8b 00                	mov    (%rax),%eax
  404ae0:	89 c0                	mov    %eax,%eax
  404ae2:	48 01 d0             	add    %rdx,%rax
  404ae5:	48 8b 55 c8          	mov    -0x38(%rbp),%rdx
  404ae9:	8b 12                	mov    (%rdx),%edx
  404aeb:	8d 4a 08             	lea    0x8(%rdx),%ecx
  404aee:	48 8b 55 c8          	mov    -0x38(%rbp),%rdx
  404af2:	89 0a                	mov    %ecx,(%rdx)
  404af4:	eb 14                	jmp    404b0a <boot_sys_writev+0x53>
  404af6:	48 8b 45 c8          	mov    -0x38(%rbp),%rax
  404afa:	48 8b 40 08          	mov    0x8(%rax),%rax
  404afe:	48 8d 50 08          	lea    0x8(%rax),%rdx
  404b02:	48 8b 4d c8          	mov    -0x38(%rbp),%rcx
  404b06:	48 89 51 08          	mov    %rdx,0x8(%rcx)
  404b0a:	8b 00                	mov    (%rax),%eax
  404b0c:	89 45 ec             	mov    %eax,-0x14(%rbp)
  404b0f:	48 8b 45 c8          	mov    -0x38(%rbp),%rax
  404b13:	8b 00                	mov    (%rax),%eax
  404b15:	83 f8 2f             	cmp    $0x2f,%eax
  404b18:	77 24                	ja     404b3e <boot_sys_writev+0x87>
  404b1a:	48 8b 45 c8          	mov    -0x38(%rbp),%rax
  404b1e:	48 8b 50 10          	mov    0x10(%rax),%rdx
  404b22:	48 8b 45 c8          	mov    -0x38(%rbp),%rax
  404b26:	8b 00                	mov    (%rax),%eax
  404b28:	89 c0                	mov    %eax,%eax
  404b2a:	48 01 d0             	add    %rdx,%rax
  404b2d:	48 8b 55 c8          	mov    -0x38(%rbp),%rdx
  404b31:	8b 12                	mov    (%rdx),%edx
  404b33:	8d 4a 08             	lea    0x8(%rdx),%ecx
  404b36:	48 8b 55 c8          	mov    -0x38(%rbp),%rdx
  404b3a:	89 0a                	mov    %ecx,(%rdx)
  404b3c:	eb 14                	jmp    404b52 <boot_sys_writev+0x9b>
  404b3e:	48 8b 45 c8          	mov    -0x38(%rbp),%rax
  404b42:	48 8b 40 08          	mov    0x8(%rax),%rax
  404b46:	48 8d 50 08          	lea    0x8(%rax),%rdx
  404b4a:	48 8b 4d c8          	mov    -0x38(%rbp),%rcx
  404b4e:	48 89 51 08          	mov    %rdx,0x8(%rcx)
  404b52:	48 8b 00             	mov    (%rax),%rax
  404b55:	48 89 45 e0          	mov    %rax,-0x20(%rbp)
  404b59:	48 8b 45 c8          	mov    -0x38(%rbp),%rax
  404b5d:	8b 00                	mov    (%rax),%eax
  404b5f:	83 f8 2f             	cmp    $0x2f,%eax
  404b62:	77 24                	ja     404b88 <boot_sys_writev+0xd1>
  404b64:	48 8b 45 c8          	mov    -0x38(%rbp),%rax
  404b68:	48 8b 50 10          	mov    0x10(%rax),%rdx
  404b6c:	48 8b 45 c8          	mov    -0x38(%rbp),%rax
  404b70:	8b 00                	mov    (%rax),%eax
  404b72:	89 c0                	mov    %eax,%eax
  404b74:	48 01 d0             	add    %rdx,%rax
  404b77:	48 8b 55 c8          	mov    -0x38(%rbp),%rdx
  404b7b:	8b 12                	mov    (%rdx),%edx
  404b7d:	8d 4a 08             	lea    0x8(%rdx),%ecx
  404b80:	48 8b 55 c8          	mov    -0x38(%rbp),%rdx
  404b84:	89 0a                	mov    %ecx,(%rdx)
  404b86:	eb 14                	jmp    404b9c <boot_sys_writev+0xe5>
  404b88:	48 8b 45 c8          	mov    -0x38(%rbp),%rax
  404b8c:	48 8b 40 08          	mov    0x8(%rax),%rax
  404b90:	48 8d 50 08          	lea    0x8(%rax),%rdx
  404b94:	48 8b 4d c8          	mov    -0x38(%rbp),%rcx
  404b98:	48 89 51 08          	mov    %rdx,0x8(%rcx)
  404b9c:	8b 00                	mov    (%rax),%eax
  404b9e:	89 45 dc             	mov    %eax,-0x24(%rbp)
  404ba1:	48 c7 45 f8 00 00 00 	movq   $0x0,-0x8(%rbp)
  404ba8:	00 
  404ba9:	c7 45 f4 00 00 00 00 	movl   $0x0,-0xc(%rbp)
  404bb0:	eb 6b                	jmp    404c1d <boot_sys_writev+0x166>
  404bb2:	8b 45 f4             	mov    -0xc(%rbp),%eax
  404bb5:	48 98                	cltq   
  404bb7:	48 c1 e0 04          	shl    $0x4,%rax
  404bbb:	48 89 c2             	mov    %rax,%rdx
  404bbe:	48 8b 45 e0          	mov    -0x20(%rbp),%rax
  404bc2:	48 01 d0             	add    %rdx,%rax
  404bc5:	48 8b 00             	mov    (%rax),%rax
  404bc8:	48 89 45 d0          	mov    %rax,-0x30(%rbp)
  404bcc:	c7 45 f0 00 00 00 00 	movl   $0x0,-0x10(%rbp)
  404bd3:	eb 22                	jmp    404bf7 <boot_sys_writev+0x140>
  404bd5:	8b 45 f0             	mov    -0x10(%rbp),%eax
  404bd8:	48 98                	cltq   
  404bda:	48 8b 55 d0          	mov    -0x30(%rbp),%rdx
  404bde:	48 01 d0             	add    %rdx,%rax
  404be1:	0f b6 00             	movzbl (%rax),%eax
  404be4:	0f be c0             	movsbl %al,%eax
  404be7:	89 c7                	mov    %eax,%edi
  404be9:	e8 6b fb ff ff       	callq  404759 <seL4_DebugPutChar>
  404bee:	48 83 45 f8 01       	addq   $0x1,-0x8(%rbp)
  404bf3:	83 45 f0 01          	addl   $0x1,-0x10(%rbp)
  404bf7:	8b 45 f0             	mov    -0x10(%rbp),%eax
  404bfa:	48 98                	cltq   
  404bfc:	8b 55 f4             	mov    -0xc(%rbp),%edx
  404bff:	48 63 d2             	movslq %edx,%rdx
  404c02:	48 89 d1             	mov    %rdx,%rcx
  404c05:	48 c1 e1 04          	shl    $0x4,%rcx
  404c09:	48 8b 55 e0          	mov    -0x20(%rbp),%rdx
  404c0d:	48 01 ca             	add    %rcx,%rdx
  404c10:	48 8b 52 08          	mov    0x8(%rdx),%rdx
  404c14:	48 39 d0             	cmp    %rdx,%rax
  404c17:	72 bc                	jb     404bd5 <boot_sys_writev+0x11e>
  404c19:	83 45 f4 01          	addl   $0x1,-0xc(%rbp)
  404c1d:	8b 45 f4             	mov    -0xc(%rbp),%eax
  404c20:	3b 45 dc             	cmp    -0x24(%rbp),%eax
  404c23:	7c 8d                	jl     404bb2 <boot_sys_writev+0xfb>
  404c25:	48 8b 45 f8          	mov    -0x8(%rbp),%rax
  404c29:	c9                   	leaveq 
  404c2a:	c3                   	retq   

0000000000404c2b <find_sparse_syscall>:
  404c2b:	f3 0f 1e fa          	endbr64 
  404c2f:	55                   	push   %rbp
  404c30:	48 89 e5             	mov    %rsp,%rbp
  404c33:	89 7d ec             	mov    %edi,-0x14(%rbp)
  404c36:	c7 45 fc 00 00 00 00 	movl   $0x0,-0x4(%rbp)
  404c3d:	90                   	nop
  404c3e:	b8 ff ff ff ff       	mov    $0xffffffff,%eax
  404c43:	5d                   	pop    %rbp
  404c44:	c3                   	retq   

0000000000404c45 <muslcsys_install_syscall>:
  404c45:	f3 0f 1e fa          	endbr64 
  404c49:	55                   	push   %rbp
  404c4a:	48 89 e5             	mov    %rsp,%rbp
  404c4d:	48 83 ec 20          	sub    $0x20,%rsp
  404c51:	89 7d ec             	mov    %edi,-0x14(%rbp)
  404c54:	48 89 75 e0          	mov    %rsi,-0x20(%rbp)
  404c58:	8b 45 ec             	mov    -0x14(%rbp),%eax
  404c5b:	3d 90 01 00 00       	cmp    $0x190,%eax
  404c60:	0f 86 9e 00 00 00    	jbe    404d04 <muslcsys_install_syscall+0xbf>
  404c66:	8b 45 ec             	mov    -0x14(%rbp),%eax
  404c69:	89 c7                	mov    %eax,%edi
  404c6b:	e8 bb ff ff ff       	callq  404c2b <find_sparse_syscall>
  404c70:	89 45 f4             	mov    %eax,-0xc(%rbp)
  404c73:	83 7d f4 00          	cmpl   $0x0,-0xc(%rbp)
  404c77:	79 5d                	jns    404cd6 <muslcsys_install_syscall+0x91>
  404c79:	8b 05 e1 c7 01 00    	mov    0x1c7e1(%rip),%eax        # 421460 <_zf_log_output_lvl>
  404c7f:	3d ff ff 00 00       	cmp    $0xffff,%eax
  404c84:	7f 37                	jg     404cbd <muslcsys_install_syscall+0x78>
  404c86:	68 91 01 00 00       	pushq  $0x191
  404c8b:	8b 45 ec             	mov    -0x14(%rbp),%eax
  404c8e:	50                   	push   %rax
  404c8f:	41 b9 f0 25 41 00    	mov    $0x4125f0,%r9d
  404c95:	41 b8 00 00 00 00    	mov    $0x0,%r8d
  404c9b:	b9 ff ff 00 00       	mov    $0xffff,%ecx
  404ca0:	ba cc 00 00 00       	mov    $0xcc,%edx
  404ca5:	be 30 25 41 00       	mov    $0x412530,%esi
  404caa:	bf 30 27 41 00       	mov    $0x412730,%edi
  404caf:	b8 00 00 00 00       	mov    $0x0,%eax
  404cb4:	e8 c6 5e 00 00       	callq  40ab7f <_zf_log_write_d>
  404cb9:	48 83 c4 10          	add    $0x10,%rsp
  404cbd:	b9 30 27 41 00       	mov    $0x412730,%ecx
  404cc2:	ba cc 00 00 00       	mov    $0xcc,%edx
  404cc7:	be 30 25 41 00       	mov    $0x412530,%esi
  404ccc:	bf 3b 26 41 00       	mov    $0x41263b,%edi
  404cd1:	e8 2e 66 00 00       	callq  40b304 <__assert_fail>
  404cd6:	8b 45 f4             	mov    -0xc(%rbp),%eax
  404cd9:	48 98                	cltq   
  404cdb:	48 c1 e0 04          	shl    $0x4,%rax
  404cdf:	48 05 18 11 42 00    	add    $0x421118,%rax
  404ce5:	48 8b 00             	mov    (%rax),%rax
  404ce8:	48 89 45 f8          	mov    %rax,-0x8(%rbp)
  404cec:	8b 45 f4             	mov    -0xc(%rbp),%eax
  404cef:	48 98                	cltq   
  404cf1:	48 c1 e0 04          	shl    $0x4,%rax
  404cf5:	48 05 18 11 42 00    	add    $0x421118,%rax
  404cfb:	48 8b 55 f8          	mov    -0x8(%rbp),%rdx
  404cff:	48 89 10             	mov    %rdx,(%rax)
  404d02:	eb 22                	jmp    404d26 <muslcsys_install_syscall+0xe1>
  404d04:	8b 45 ec             	mov    -0x14(%rbp),%eax
  404d07:	48 98                	cltq   
  404d09:	48 8b 04 c5 20 70 41 	mov    0x417020(,%rax,8),%rax
  404d10:	00 
  404d11:	48 89 45 f8          	mov    %rax,-0x8(%rbp)
  404d15:	8b 45 ec             	mov    -0x14(%rbp),%eax
  404d18:	48 98                	cltq   
  404d1a:	48 8b 55 e0          	mov    -0x20(%rbp),%rdx
  404d1e:	48 89 14 c5 20 70 41 	mov    %rdx,0x417020(,%rax,8)
  404d25:	00 
  404d26:	48 8b 45 f8          	mov    -0x8(%rbp),%rax
  404d2a:	c9                   	leaveq 
  404d2b:	c3                   	retq   

0000000000404d2c <init_syscall_table>:
  404d2c:	f3 0f 1e fa          	endbr64 
  404d30:	55                   	push   %rbp
  404d31:	48 89 e5             	mov    %rsp,%rbp
  404d34:	48 83 ec 10          	sub    $0x10,%rsp
  404d38:	be 49 56 40 00       	mov    $0x405649,%esi
  404d3d:	bf da 00 00 00       	mov    $0xda,%edi
  404d42:	e8 fe fe ff ff       	callq  404c45 <muslcsys_install_syscall>
  404d47:	48 89 45 f8          	mov    %rax,-0x8(%rbp)
  404d4b:	48 81 7d f8 da 49 40 	cmpq   $0x4049da,-0x8(%rbp)
  404d52:	00 
  404d53:	74 19                	je     404d6e <init_syscall_table+0x42>
  404d55:	b9 50 27 41 00       	mov    $0x412750,%ecx
  404d5a:	ba e1 00 00 00       	mov    $0xe1,%edx
  404d5f:	be 30 25 41 00       	mov    $0x412530,%esi
  404d64:	bf 4a 26 41 00       	mov    $0x41264a,%edi
  404d69:	e8 96 65 00 00       	callq  40b304 <__assert_fail>
  404d6e:	be 36 56 40 00       	mov    $0x405636,%esi
  404d73:	bf cd 00 00 00       	mov    $0xcd,%edi
  404d78:	e8 c8 fe ff ff       	callq  404c45 <muslcsys_install_syscall>
  404d7d:	48 89 45 f8          	mov    %rax,-0x8(%rbp)
  404d81:	48 81 7d f8 b1 48 40 	cmpq   $0x4048b1,-0x8(%rbp)
  404d88:	00 
  404d89:	74 19                	je     404da4 <init_syscall_table+0x78>
  404d8b:	b9 50 27 41 00       	mov    $0x412750,%ecx
  404d90:	ba e4 00 00 00       	mov    $0xe4,%edx
  404d95:	be 30 25 41 00       	mov    $0x412530,%esi
  404d9a:	bf 66 26 41 00       	mov    $0x412666,%edi
  404d9f:	e8 60 65 00 00       	callq  40b304 <__assert_fail>
  404da4:	be 5e 35 40 00       	mov    $0x40355e,%esi
  404da9:	bf 14 00 00 00       	mov    $0x14,%edi
  404dae:	e8 92 fe ff ff       	callq  404c45 <muslcsys_install_syscall>
  404db3:	48 89 45 f8          	mov    %rax,-0x8(%rbp)
  404db7:	48 81 7d f8 b7 4a 40 	cmpq   $0x404ab7,-0x8(%rbp)
  404dbe:	00 
  404dbf:	74 19                	je     404dda <init_syscall_table+0xae>
  404dc1:	b9 50 27 41 00       	mov    $0x412750,%ecx
  404dc6:	ba eb 00 00 00       	mov    $0xeb,%edx
  404dcb:	be 30 25 41 00       	mov    $0x412530,%esi
  404dd0:	bf 82 26 41 00       	mov    $0x412682,%edi
  404dd5:	e8 2a 65 00 00       	callq  40b304 <__assert_fail>
  404dda:	90                   	nop
  404ddb:	c9                   	leaveq 
  404ddc:	c3                   	retq   

0000000000404ddd <debug_error>:
  404ddd:	f3 0f 1e fa          	endbr64 
  404de1:	55                   	push   %rbp
  404de2:	48 89 e5             	mov    %rsp,%rbp
  404de5:	48 83 c4 80          	add    $0xffffffffffffff80,%rsp
  404de9:	89 7d 8c             	mov    %edi,-0x74(%rbp)
  404dec:	8b 55 8c             	mov    -0x74(%rbp),%edx
  404def:	48 8d 45 90          	lea    -0x70(%rbp),%rax
  404df3:	be a0 26 41 00       	mov    $0x4126a0,%esi
  404df8:	48 89 c7             	mov    %rax,%rdi
  404dfb:	b8 00 00 00 00       	mov    $0x0,%eax
  404e00:	e8 c3 77 00 00       	callq  40c5c8 <sprintf>
  404e05:	c7 45 fc 00 00 00 00 	movl   $0x0,-0x4(%rbp)
  404e0c:	eb 18                	jmp    404e26 <debug_error+0x49>
  404e0e:	8b 45 fc             	mov    -0x4(%rbp),%eax
  404e11:	48 98                	cltq   
  404e13:	0f b6 44 05 90       	movzbl -0x70(%rbp,%rax,1),%eax
  404e18:	0f be c0             	movsbl %al,%eax
  404e1b:	89 c7                	mov    %eax,%edi
  404e1d:	e8 37 f9 ff ff       	callq  404759 <seL4_DebugPutChar>
  404e22:	83 45 fc 01          	addl   $0x1,-0x4(%rbp)
  404e26:	8b 45 fc             	mov    -0x4(%rbp),%eax
  404e29:	48 98                	cltq   
  404e2b:	0f b6 44 05 90       	movzbl -0x70(%rbp,%rax,1),%eax
  404e30:	84 c0                	test   %al,%al
  404e32:	75 da                	jne    404e0e <debug_error+0x31>
  404e34:	90                   	nop
  404e35:	90                   	nop
  404e36:	c9                   	leaveq 
  404e37:	c3                   	retq   

0000000000404e38 <sel4_vsyscall>:
  404e38:	f3 0f 1e fa          	endbr64 
  404e3c:	55                   	push   %rbp
